Certificate:
    Data:
        Version: 3 (0x2)
        Serial Number:
            1f:ad:5f:f9:26:60:43:50:81:c0:43:7b:fb:4d:05:35:27:d9:29:c3
        Signature Algorithm: sha256WithRSAEncryption
        Issuer: DC=edu, DC=ucsd, DC=e4e, O=UC San Diego, OU=Engineers for Exploration, CN=UCSD Engineers for Exploration
        Validity
            Not Before: Jul 12 21:42:00 2024 GMT
            Not After : Jul 12 21:42:00 2026 GMT
        Subject: DC=edu, DC=ucsd, DC=e4e, O=UC San Diego, OU=Engineers for Exploration - FishSense, CN=e4e-fishsense-mobile-endpoint.dynamic.ucsd.edu
        Subject Public Key Info:
            Public Key Algorithm: rsaEncryption
                RSA Public-Key: (4096 bit)
                Modulus:
                    00:bf:7a:94:e0:7b:1a:97:e4:18:28:48:de:1c:38:
                    ce:7e:0b:6f:bf:3b:cf:a1:7b:a6:51:34:6f:45:af:
                    78:d7:91:f7:d5:49:89:1f:e1:9f:00:b1:04:a1:62:
                    b8:f3:5a:9a:50:ef:bf:b0:45:98:f8:34:69:1b:fc:
                    91:bc:26:59:1e:5c:9b:1d:4c:1e:7d:a9:ee:d0:28:
                    c3:af:b5:aa:63:38:86:03:f6:39:59:82:26:fc:a5:
                    58:24:ca:b6:3e:23:ca:78:6a:7c:4a:e4:af:75:c3:
                    2e:62:ee:50:d8:ee:40:a8:14:09:ae:b6:9f:56:41:
                    28:5f:16:3f:cf:90:91:1c:ac:8e:fc:43:15:5c:87:
                    65:f2:bd:1d:7b:d9:95:30:8c:39:43:15:6c:5c:1d:
                    df:75:2d:cc:81:24:ed:43:b9:ff:5d:72:1a:5a:de:
                    d3:50:44:a6:26:41:4e:4f:70:8c:59:c1:8f:af:c9:
                    e4:91:ef:38:e6:93:bb:da:09:af:8a:56:d6:c8:de:
                    ab:7d:51:c2:a9:39:ac:d8:0f:9b:8b:52:9f:5b:95:
                    ae:3a:e2:ef:ee:89:23:4f:62:af:3e:60:c7:77:dd:
                    dc:3a:07:c7:d5:fb:91:75:fd:87:0c:a4:df:9f:a0:
                    34:5a:64:a1:0d:ed:17:7b:77:d1:27:bc:e1:33:d3:
                    c1:41:06:d4:52:b6:c9:27:fc:91:2e:14:e4:a0:26:
                    fc:c5:1e:a7:ac:c4:f8:87:86:5a:f0:0a:df:ce:93:
                    26:f6:35:b3:84:b1:1e:a3:f9:70:38:98:e9:3c:97:
                    aa:0d:66:89:e1:58:54:4a:1e:56:f9:60:5f:52:72:
                    d4:11:99:f8:21:a9:58:04:be:05:2f:4a:9b:60:e4:
                    47:69:22:27:bd:03:ab:d0:f2:f1:80:2c:44:11:4d:
                    41:5b:bb:16:cc:bb:1a:c7:d5:c6:33:4c:33:60:3a:
                    58:68:28:9b:4d:3b:e5:bb:6a:8f:7a:d6:19:fc:b8:
                    51:ac:05:64:cd:09:7b:39:7b:7f:21:8e:95:c8:85:
                    dd:9b:fd:26:70:4a:21:33:49:a3:ae:50:4d:64:49:
                    f2:d4:66:30:12:41:ea:90:b2:e1:82:2e:b3:71:b0:
                    62:f7:ed:0a:e4:85:fe:bd:2f:56:e8:96:f5:7a:20:
                    91:36:28:79:98:dc:e2:01:17:12:e4:0d:cc:77:ae:
                    07:a9:4f:1c:56:f5:d1:7b:83:db:79:aa:85:77:7c:
                    85:34:cb:4f:73:4e:62:2d:97:6d:15:a1:2d:f9:c3:
                    49:c1:c0:b5:1b:52:9c:86:2e:7a:5e:62:20:f2:05:
                    2e:16:6a:5e:46:b0:53:35:65:40:d0:76:aa:49:05:
                    2d:b4:5f
                Exponent: 65537 (0x10001)
        X509v3 extensions:
            X509v3 Key Usage: critical
                Digital Signature, Key Encipherment
            X509v3 Basic Constraints: 
                CA:FALSE
            X509v3 Extended Key Usage: 
                TLS Web Server Authentication, TLS Web Client Authentication
            X509v3 Subject Key Identifier: 
                BD:F0:B6:D1:CC:82:08:97:C4:62:91:35:9D:12:90:5B:11:7D:07:38
            X509v3 Authority Key Identifier: 
                keyid:95:08:E3:1E:9D:2D:64:4E:49:3E:A7:D6:F4:3E:35:EE:52:BB:96:E3

            X509v3 Subject Alternative Name: 
                DNS:e4e-fishsense-mobile-endpoint.dynamic.ucsd.edu
    Signature Algorithm: sha256WithRSAEncryption
         7b:e9:4b:b7:61:bc:39:c9:e6:af:d6:af:3e:52:8a:23:ab:2f:
         41:3d:56:79:31:c2:2b:31:c2:29:4b:5a:7e:54:93:28:af:8a:
         13:26:99:77:f2:fa:58:be:32:7c:f9:c1:19:3f:74:6b:f7:73:
         5a:50:e8:56:cc:6c:92:d5:f9:8c:94:57:d2:01:b2:f4:9c:75:
         fd:47:87:ee:96:71:5f:19:cf:38:f1:4d:18:b4:c7:7d:80:d8:
         88:85:d7:bd:a9:98:0f:23:b6:46:8d:b1:4f:b0:19:b1:44:e8:
         a2:79:a0:eb:86:9c:11:65:98:ea:88:5e:09:71:75:5f:25:f2:
         4c:1d:a5:9f:10:42:9c:0b:3a:20:ae:97:84:a1:05:53:23:d8:
         76:7e:b6:0a:4b:11:13:77:bf:a3:e0:0c:ab:3e:83:b0:d4:55:
         2c:f4:b3:74:8b:9d:a0:8b:75:76:1a:8c:69:ac:d5:06:e3:51:
         b1:5a:8c:da:89:e8:9d:d8:9f:2d:de:08:5b:9a:2d:c3:b7:7b:
         a6:3e:33:4a:2a:af:c1:0c:cb:9a:e8:ac:88:62:01:35:bf:ab:
         5c:55:72:74:bf:00:aa:05:69:39:dd:3d:f3:29:ac:4e:08:13:
         93:71:9b:e2:56:1a:99:5a:66:2d:e9:1f:4d:59:74:3b:5a:5a:
         b0:bc:92:b8:f1:22:58:c0:62:46:36:f2:c2:29:2c:12:87:30:
         8c:52:42:d4:44:ed:46:12:af:07:f2:71:28:8b:03:02:3b:4a:
         fc:e8:0f:e9:b7:e9:e3:60:d1:d4:26:84:d0:92:7f:84:f2:40:
         7b:14:d7:88:4c:45:93:9a:40:7d:2b:7a:b6:65:57:1b:64:d5:
         84:fa:1f:11:bf:eb:e7:70:5e:f8:ed:15:e4:58:b1:a2:58:c0:
         a5:9f:f3:1d:48:f9:02:e0:8c:80:e9:f4:d9:a1:8f:8c:b2:6e:
         9c:b8:c3:bf:7e:7b:e1:46:45:4b:81:41:a3:fa:55:06:a4:59:
         83:6e:db:39:58:f3:f2:2e:12:7b:8b:5c:cb:77:99:ef:8c:5d:
         f4:f8:82:fa:b9:cf:ac:6a:e8:5b:94:d5:ff:43:93:98:a3:8b:
         b0:bd:58:52:71:20:9e:ac:b2:95:62:9b:97:09:f0:8c:72:28:
         80:ff:9c:35:d6:93:bd:e2:88:8c:b3:4b:15:66:bc:07:bf:51:
         d6:48:2f:c2:64:e1:30:27:f4:c0:7c:4a:d5:68:cb:32:e7:bf:
         0b:42:08:17:16:51:c0:d1:60:89:b4:f2:d1:2a:5a:3a:8d:32:
         a4:d5:63:11:05:3e:57:50:6d:79:fe:14:f8:ad:cf:df:7f:be:
         31:68:2a:62:b0:a5:50:59
-----BEGIN CERTIFICATE-----
MIIGrTCCBJWgAwIBAgIUH61f+SZgQ1CBwEN7+00FNSfZKcMwDQYJKoZIhvcNAQEL
BQAwgaQxEzARBgoJkiaJk/IsZAEZFgNlZHUxFDASBgoJkiaJk/IsZAEZFgR1Y3Nk
MRMwEQYKCZImiZPyLGQBGRYDZTRlMRUwEwYDVQQKDAxVQyBTYW4gRGllZ28xIjAg
BgNVBAsMGUVuZ2luZWVycyBmb3IgRXhwbG9yYXRpb24xJzAlBgNVBAMMHlVDU0Qg
RW5naW5lZXJzIGZvciBFeHBsb3JhdGlvbjAeFw0yNDA3MTIyMTQyMDBaFw0yNjA3
MTIyMTQyMDBaMIHAMRMwEQYKCZImiZPyLGQBGRYDZWR1MRQwEgYKCZImiZPyLGQB
GRYEdWNzZDETMBEGCgmSJomT8ixkARkWA2U0ZTEVMBMGA1UECgwMVUMgU2FuIERp
ZWdvMS4wLAYDVQQLDCVFbmdpbmVlcnMgZm9yIEV4cGxvcmF0aW9uIC0gRmlzaFNl
bnNlMTcwNQYDVQQDDC5lNGUtZmlzaHNlbnNlLW1vYmlsZS1lbmRwb2ludC5keW5h
bWljLnVjc2QuZWR1MIICIjANBgkqhkiG9w0BAQEFAAOCAg8AMIICCgKCAgEAv3qU
4Hsal+QYKEjeHDjOfgtvvzvPoXumUTRvRa9415H31UmJH+GfALEEoWK481qaUO+/
sEWY+DRpG/yRvCZZHlybHUwefanu0CjDr7WqYziGA/Y5WYIm/KVYJMq2PiPKeGp8
SuSvdcMuYu5Q2O5AqBQJrrafVkEoXxY/z5CRHKyO/EMVXIdl8r0de9mVMIw5QxVs
XB3fdS3MgSTtQ7n/XXIaWt7TUESmJkFOT3CMWcGPr8nkke845pO72gmvilbWyN6r
fVHCqTms2A+bi1KfW5WuOuLv7okjT2KvPmDHd93cOgfH1fuRdf2HDKTfn6A0WmSh
De0Xe3fRJ7zhM9PBQQbUUrbJJ/yRLhTkoCb8xR6nrMT4h4Za8ArfzpMm9jWzhLEe
o/lwOJjpPJeqDWaJ4VhUSh5W+WBfUnLUEZn4IalYBL4FL0qbYORHaSInvQOr0PLx
gCxEEU1BW7sWzLsax9XGM0wzYDpYaCibTTvlu2qPetYZ/LhRrAVkzQl7OXt/IY6V
yIXdm/0mcEohM0mjrlBNZEny1GYwEkHqkLLhgi6zcbBi9+0K5IX+vS9W6Jb1eiCR
Nih5mNziARcS5A3Md64HqU8cVvXRe4PbeaqFd3yFNMtPc05iLZdtFaEt+cNJwcC1
G1Kchi56XmIg8gUuFmpeRrBTNWVA0HaqSQUttF8CAwEAAaOBuDCBtTAOBgNVHQ8B
Af8EBAMCBaAwCQYDVR0TBAIwADAdBgNVHSUEFjAUBggrBgEFBQcDAQYIKwYBBQUH
AwIwHQYDVR0OBBYEFL3wttHMggiXxGKRNZ0SkFsRfQc4MB8GA1UdIwQYMBaAFJUI
4x6dLWROST6n1vQ+Ne5Su5bjMDkGA1UdEQQyMDCCLmU0ZS1maXNoc2Vuc2UtbW9i
aWxlLWVuZHBvaW50LmR5bmFtaWMudWNzZC5lZHUwDQYJKoZIhvcNAQELBQADggIB
AHvpS7dhvDnJ5q/Wrz5SiiOrL0E9VnkxwisxwilLWn5UkyivihMmmXfy+li+Mnz5
wRk/dGv3c1pQ6FbMbJLV+YyUV9IBsvScdf1Hh+6WcV8ZzzjxTRi0x32A2IiF172p
mA8jtkaNsU+wGbFE6KJ5oOuGnBFlmOqIXglxdV8l8kwdpZ8QQpwLOiCul4ShBVMj
2HZ+tgpLERN3v6PgDKs+g7DUVSz0s3SLnaCLdXYajGms1QbjUbFajNqJ6J3Yny3e
CFuaLcO3e6Y+M0oqr8EMy5rorIhiATW/q1xVcnS/AKoFaTndPfMprE4IE5Nxm+JW
GplaZi3pH01ZdDtaWrC8krjxIljAYkY28sIpLBKHMIxSQtRE7UYSrwfycSiLAwI7
SvzoD+m36eNg0dQmhNCSf4TyQHsU14hMRZOaQH0rerZlVxtk1YT6HxG/6+dwXvjt
FeRYsaJYwKWf8x1I+QLgjIDp9Nmhj4yybpy4w79+e+FGRUuBQaP6VQakWYNu2zlY
8/IuEnuLXMt3me+MXfT4gvq5z6xq6FuU1f9Dk5iji7C9WFJxIJ6sspVim5cJ8Ixy
KID/nDXWk73iiIyzSxVmvAe/UdZIL8Jk4TAn9MB8StVoyzLnvwtCCBcWUcDRYIm0
8tEqWjqNMqTVYxEFPldQbXn+FPitz99/vjFoKmKwpVBZ
-----END CERTIFICATE-----
