Certificate:
    Data:
        Version: 3 (0x2)
        Serial Number:
            43:76:55:2f:86:4d:aa:e3:36:42:2c:13:00:d9:7a:99:9e:ac:07:d0
        Signature Algorithm: sha256WithRSAEncryption
        Issuer: DC=edu, DC=ucsd, DC=e4e, O=UC San Diego, OU=Engineers for Exploration, CN=UCSD Engineers for Exploration
        Validity
            Not Before: Jul 12 18:26:29 2024 GMT
            Not After : Jul 12 18:26:29 2026 GMT
        Subject: DC=edu, DC=ucsd, DC=dynamic, DC=e4e-fishsense-mobile-endpoint, O=UC San Diego, OU=Engineers for Exploration, CN=UCSD Engineers for Exploration
        Subject Public Key Info:
            Public Key Algorithm: rsaEncryption
                RSA Public-Key: (2048 bit)
                Modulus:
                    00:b7:5a:dc:13:ea:3b:23:a0:a0:e0:9b:3a:10:1f:
                    c9:f0:53:d1:f7:0b:62:66:8c:11:9c:2c:19:fc:9c:
                    3e:77:c2:52:2c:90:20:3d:fa:dc:bf:16:a3:36:9e:
                    fa:62:ff:7d:cf:b6:50:3e:d2:ea:e7:72:94:a5:56:
                    b1:23:07:e6:81:95:03:f0:b2:84:2b:03:c7:84:c1:
                    46:b5:3e:58:84:f8:b5:1f:67:69:61:71:30:8f:46:
                    26:ad:95:00:89:89:a7:9e:7b:60:4e:1b:46:6a:a6:
                    3b:87:19:16:ab:5d:3b:d4:70:bc:b5:25:28:e4:11:
                    4d:93:0b:a8:4f:58:b8:4f:86:20:c9:f4:0c:9b:62:
                    8e:c8:d3:ef:57:5f:ec:59:04:25:4c:9b:34:34:06:
                    65:b3:60:97:6d:ed:b5:67:74:97:c6:db:05:25:f7:
                    30:27:3e:81:cf:68:89:77:eb:e2:25:6a:a0:c3:f8:
                    2b:1a:d7:93:5e:03:f9:c0:53:e4:5c:91:e4:66:41:
                    04:c7:bb:5f:80:5d:c9:fa:9a:0f:aa:c4:a1:88:05:
                    5a:ef:4d:35:b9:ae:9b:37:f6:72:ff:2a:45:3e:04:
                    f2:af:c0:02:78:40:b9:43:2a:56:cc:ef:bb:fb:6f:
                    98:c1:10:fd:4f:12:2b:77:ec:b2:d3:dd:5e:22:23:
                    7a:23
                Exponent: 65537 (0x10001)
        X509v3 extensions:
            X509v3 Key Usage: critical
                Digital Signature, Key Encipherment
            X509v3 Basic Constraints: 
                CA:FALSE
            X509v3 Extended Key Usage: 
                TLS Web Server Authentication, TLS Web Client Authentication
            X509v3 Subject Key Identifier: 
                ED:24:C5:7E:46:57:43:76:B6:00:62:BE:12:2B:D3:4E:66:FE:91:60
            X509v3 Authority Key Identifier: 
                keyid:95:08:E3:1E:9D:2D:64:4E:49:3E:A7:D6:F4:3E:35:EE:52:BB:96:E3

            X509v3 Subject Alternative Name: 
                DNS:e4e-fishsense-mobile-endpoint.dynamic.ucsd.edu
    Signature Algorithm: sha256WithRSAEncryption
         08:c7:67:d9:5e:91:37:06:53:b9:84:dd:f4:bd:26:bb:7b:ec:
         b6:9b:d8:e2:3e:60:8f:94:82:4d:9e:0a:99:71:48:f1:03:e4:
         48:62:44:45:91:c0:c9:d8:d7:c1:5b:b4:5d:3c:a7:0b:b0:26:
         17:7a:99:59:6e:ae:1c:83:41:24:b9:8f:9d:27:b2:38:d1:a2:
         ec:70:9f:46:75:57:e9:38:ea:36:ea:ae:a9:06:79:00:e8:ff:
         58:41:f3:3d:15:14:8a:bf:2b:cc:fa:55:35:be:fc:db:70:d5:
         d1:c7:11:58:ff:a6:61:2a:51:74:9b:7b:82:9a:6e:31:69:bf:
         76:38:cc:1c:16:99:6e:9b:2a:d0:68:26:7e:7a:9a:42:a2:b1:
         6a:45:1d:dd:7c:94:ff:a6:99:e0:15:9f:f8:bf:c5:2b:6b:bb:
         75:2e:c5:8e:fc:e2:54:ed:38:dd:47:80:4e:b1:17:f9:1e:9d:
         5a:c2:d4:ba:39:6f:d9:ca:ed:34:cd:65:9d:ec:d4:87:69:dd:
         18:e7:85:64:c4:4a:bb:13:bd:ef:f1:27:2e:e3:2c:ec:76:cd:
         95:f4:94:02:2a:39:21:99:90:d1:c7:48:e0:f0:91:36:ab:48:
         8d:a3:cc:65:20:54:af:1e:cd:66:53:b7:e8:e0:fe:7a:fc:41:
         7c:49:0f:7a:3e:88:e3:10:bc:b6:89:15:8d:da:f3:6a:5e:1f:
         db:1c:52:58:50:f2:15:25:d7:80:a4:f4:89:98:e0:ad:3c:9e:
         fb:00:d5:52:f1:7e:a5:eb:a3:ac:a4:55:59:cf:43:f5:8f:6c:
         f3:22:fe:25:56:dd:37:b0:b2:d9:bb:07:e4:37:60:b9:0a:9f:
         be:64:4e:ec:e8:93:f1:c6:9e:8c:1c:3f:1a:5e:a4:b2:20:30:
         80:5b:84:a7:36:db:1b:98:90:4a:fe:b7:0d:74:47:fd:8f:ba:
         e4:cf:54:8b:f8:22:cb:26:8a:51:7d:07:b9:3f:de:59:fe:fd:
         e0:89:80:a4:24:71:09:12:a7:94:19:34:9d:88:5e:ca:b5:1f:
         f9:c9:07:c1:89:9c:0b:a8:ef:b7:b9:f2:7d:64:38:dc:10:e5:
         dc:4d:ab:db:0c:33:23:cb:d9:6a:04:9f:99:45:eb:d1:79:ae:
         0e:69:9b:b8:93:11:3a:c5:e0:0b:63:6f:da:12:12:2c:87:eb:
         8f:90:92:ba:0a:24:1a:f5:5b:59:93:88:f4:d0:f0:3e:f2:1e:
         c0:71:c1:3a:52:01:bb:16:bf:88:1d:94:b3:47:07:c4:85:2b:
         0d:26:3d:8e:0f:7a:f5:47:aa:2b:da:b4:19:c2:aa:91:6a:db:
         c5:04:31:aa:09:8f:5f:ff
-----BEGIN CERTIFICATE-----
MIIFxDCCA6ygAwIBAgIUQ3ZVL4ZNquM2QiwTANl6mZ6sB9AwDQYJKoZIhvcNAQEL
BQAwgaQxEzARBgoJkiaJk/IsZAEZFgNlZHUxFDASBgoJkiaJk/IsZAEZFgR1Y3Nk
MRMwEQYKCZImiZPyLGQBGRYDZTRlMRUwEwYDVQQKDAxVQyBTYW4gRGllZ28xIjAg
BgNVBAsMGUVuZ2luZWVycyBmb3IgRXhwbG9yYXRpb24xJzAlBgNVBAMMHlVDU0Qg
RW5naW5lZXJzIGZvciBFeHBsb3JhdGlvbjAeFw0yNDA3MTIxODI2MjlaFw0yNjA3
MTIxODI2MjlaMIHXMRMwEQYKCZImiZPyLGQBGRYDZWR1MRQwEgYKCZImiZPyLGQB
GRYEdWNzZDEXMBUGCgmSJomT8ixkARkWB2R5bmFtaWMxLTArBgoJkiaJk/IsZAEZ
Fh1lNGUtZmlzaHNlbnNlLW1vYmlsZS1lbmRwb2ludDEVMBMGA1UECgwMVUMgU2Fu
IERpZWdvMSIwIAYDVQQLDBlFbmdpbmVlcnMgZm9yIEV4cGxvcmF0aW9uMScwJQYD
VQQDDB5VQ1NEIEVuZ2luZWVycyBmb3IgRXhwbG9yYXRpb24wggEiMA0GCSqGSIb3
DQEBAQUAA4IBDwAwggEKAoIBAQC3WtwT6jsjoKDgmzoQH8nwU9H3C2JmjBGcLBn8
nD53wlIskCA9+ty/FqM2nvpi/33PtlA+0urncpSlVrEjB+aBlQPwsoQrA8eEwUa1
PliE+LUfZ2lhcTCPRiatlQCJiaeee2BOG0ZqpjuHGRarXTvUcLy1JSjkEU2TC6hP
WLhPhiDJ9AybYo7I0+9XX+xZBCVMmzQ0BmWzYJdt7bVndJfG2wUl9zAnPoHPaIl3
6+IlaqDD+Csa15NeA/nAU+RckeRmQQTHu1+AXcn6mg+qxKGIBVrvTTW5rps39nL/
KkU+BPKvwAJ4QLlDKlbM77v7b5jBEP1PEit37LLT3V4iI3ojAgMBAAGjgbgwgbUw
DgYDVR0PAQH/BAQDAgWgMAkGA1UdEwQCMAAwHQYDVR0lBBYwFAYIKwYBBQUHAwEG
CCsGAQUFBwMCMB0GA1UdDgQWBBTtJMV+RldDdrYAYr4SK9NOZv6RYDAfBgNVHSME
GDAWgBSVCOMenS1kTkk+p9b0PjXuUruW4zA5BgNVHREEMjAwgi5lNGUtZmlzaHNl
bnNlLW1vYmlsZS1lbmRwb2ludC5keW5hbWljLnVjc2QuZWR1MA0GCSqGSIb3DQEB
CwUAA4ICAQAIx2fZXpE3BlO5hN30vSa7e+y2m9jiPmCPlIJNngqZcUjxA+RIYkRF
kcDJ2NfBW7RdPKcLsCYXeplZbq4cg0EkuY+dJ7I40aLscJ9GdVfpOOo26q6pBnkA
6P9YQfM9FRSKvyvM+lU1vvzbcNXRxxFY/6ZhKlF0m3uCmm4xab92OMwcFplumyrQ
aCZ+eppCorFqRR3dfJT/ppngFZ/4v8Ura7t1LsWO/OJU7TjdR4BOsRf5Hp1awtS6
OW/Zyu00zWWd7NSHad0Y54VkxEq7E73v8Scu4yzsds2V9JQCKjkhmZDRx0jg8JE2
q0iNo8xlIFSvHs1mU7fo4P56/EF8SQ96PojjELy2iRWN2vNqXh/bHFJYUPIVJdeA
pPSJmOCtPJ77ANVS8X6l66OspFVZz0P1j2zzIv4lVt03sLLZuwfkN2C5Cp++ZE7s
6JPxxp6MHD8aXqSyIDCAW4SnNtsbmJBK/rcNdEf9j7rkz1SL+CLLJopRfQe5P95Z
/v3giYCkJHEJEqeUGTSdiF7KtR/5yQfBiZwLqO+3ufJ9ZDjcEOXcTavbDDMjy9lq
BJ+ZRevRea4OaZu4kxE6xeALY2/aEhIsh+uPkJK6CiQa9VtZk4j00PA+8h7AccE6
UgG7Fr+IHZSzRwfEhSsNJj2OD3r1R6or2rQZwqqRatvFBDGqCY9f/w==
-----END CERTIFICATE-----
