Certificate:
    Data:
        Version: 3 (0x2)
        Serial Number:
            44:50:da:b7:44:09:ad:83:4e:8c:28:43:4b:1f:e4:e5:d7:50:71:93
        Signature Algorithm: sha256WithRSAEncryption
        Issuer: DC=edu, DC=ucsd, DC=e4e, O=UC San Diego, OU=Engineers for Exploration, CN=UCSD Engineers for Exploration
        Validity
            Not Before: Jul 12 18:59:27 2024 GMT
            Not After : Jul 12 18:59:27 2026 GMT
        Subject: DC=edu, DC=ucsd, DC=e4e, O=UC San Diego, OU=Engineers for Exploration, CN=e4e-fishsense-mobile-endpoint.dynamic.ucsd.edu
        Subject Public Key Info:
            Public Key Algorithm: rsaEncryption
                RSA Public-Key: (2048 bit)
                Modulus:
                    00:b7:5a:dc:13:ea:3b:23:a0:a0:e0:9b:3a:10:1f:
                    c9:f0:53:d1:f7:0b:62:66:8c:11:9c:2c:19:fc:9c:
                    3e:77:c2:52:2c:90:20:3d:fa:dc:bf:16:a3:36:9e:
                    fa:62:ff:7d:cf:b6:50:3e:d2:ea:e7:72:94:a5:56:
                    b1:23:07:e6:81:95:03:f0:b2:84:2b:03:c7:84:c1:
                    46:b5:3e:58:84:f8:b5:1f:67:69:61:71:30:8f:46:
                    26:ad:95:00:89:89:a7:9e:7b:60:4e:1b:46:6a:a6:
                    3b:87:19:16:ab:5d:3b:d4:70:bc:b5:25:28:e4:11:
                    4d:93:0b:a8:4f:58:b8:4f:86:20:c9:f4:0c:9b:62:
                    8e:c8:d3:ef:57:5f:ec:59:04:25:4c:9b:34:34:06:
                    65:b3:60:97:6d:ed:b5:67:74:97:c6:db:05:25:f7:
                    30:27:3e:81:cf:68:89:77:eb:e2:25:6a:a0:c3:f8:
                    2b:1a:d7:93:5e:03:f9:c0:53:e4:5c:91:e4:66:41:
                    04:c7:bb:5f:80:5d:c9:fa:9a:0f:aa:c4:a1:88:05:
                    5a:ef:4d:35:b9:ae:9b:37:f6:72:ff:2a:45:3e:04:
                    f2:af:c0:02:78:40:b9:43:2a:56:cc:ef:bb:fb:6f:
                    98:c1:10:fd:4f:12:2b:77:ec:b2:d3:dd:5e:22:23:
                    7a:23
                Exponent: 65537 (0x10001)
        X509v3 extensions:
            X509v3 Key Usage: critical
                Digital Signature, Key Encipherment
            X509v3 Basic Constraints: 
                CA:FALSE
            X509v3 Extended Key Usage: 
                TLS Web Server Authentication, TLS Web Client Authentication
            X509v3 Subject Key Identifier: 
                ED:24:C5:7E:46:57:43:76:B6:00:62:BE:12:2B:D3:4E:66:FE:91:60
            X509v3 Authority Key Identifier: 
                keyid:95:08:E3:1E:9D:2D:64:4E:49:3E:A7:D6:F4:3E:35:EE:52:BB:96:E3

            X509v3 Subject Alternative Name: 
                DNS:e4e-fishsense-mobile-endpoint.dynamic.ucsd.edu
    Signature Algorithm: sha256WithRSAEncryption
         09:aa:af:82:45:5f:3c:09:5c:8f:ab:1a:9c:b6:16:43:f0:a7:
         59:45:ae:20:de:59:92:19:7d:0a:5d:a1:30:1a:e8:65:7c:b4:
         66:a4:81:cb:a4:57:29:58:5e:c2:dc:7a:c4:72:3a:51:a6:22:
         c5:a1:08:29:ab:62:7e:24:60:f3:3c:83:92:b1:a2:59:72:8d:
         28:d4:b4:3e:43:2a:c1:23:23:ed:3d:5b:6d:31:05:01:79:27:
         84:17:1d:86:68:bd:f6:47:b7:58:30:9f:91:de:8d:84:62:10:
         bb:a6:84:a4:9e:2b:9d:64:16:5c:29:a6:48:f9:27:00:d3:bc:
         32:77:e0:7c:6a:8c:26:36:74:fa:24:06:b6:19:a5:2e:fb:06:
         72:2a:75:17:fa:de:a3:80:08:bc:1a:f8:ba:39:7d:8f:1d:b8:
         2d:96:84:7a:00:bc:91:8d:2f:ff:fe:07:de:55:ea:f5:1f:dd:
         82:3d:0d:7a:d0:00:fc:59:dc:f8:b9:97:8f:98:65:99:3e:6c:
         86:f7:f9:af:29:4b:17:01:f2:81:63:cc:dc:7f:e9:bb:3a:a1:
         71:55:a4:1b:a1:f5:b7:09:77:ff:3e:34:f8:d3:95:9e:c8:09:
         75:9b:01:1f:85:9a:1a:9a:bb:87:44:a6:96:b9:64:8c:76:3c:
         d0:eb:88:c0:18:89:a8:6d:dd:90:d1:08:8f:14:db:79:c6:c4:
         ac:f4:89:d8:9f:a0:c0:fd:14:0a:3f:e7:70:ca:11:37:0b:ad:
         2a:96:6d:b7:8e:b8:26:6e:cd:83:bb:e4:5a:1a:ef:7e:ce:46:
         bb:24:35:16:dd:69:17:4c:ec:69:51:6f:8c:72:4b:2d:85:6f:
         b0:e3:47:12:f4:f1:90:c0:41:67:cf:0f:40:85:99:43:8b:76:
         2d:37:e7:93:5c:a8:f2:f4:3f:30:c6:35:d1:24:a9:93:b2:83:
         55:65:f3:a2:1d:5b:7a:b1:df:f1:87:f2:db:bf:e0:6c:b8:59:
         cf:6e:b3:c0:50:c2:18:46:01:4a:7d:3c:7b:e1:44:02:55:00:
         e3:4d:8c:1f:c7:ef:6a:d1:af:e8:f6:b3:af:8b:73:5b:69:56:
         6b:34:85:4e:80:fe:1c:d6:6d:75:f5:2a:48:f7:b5:6a:6c:46:
         b9:09:e3:7e:bf:03:84:12:83:70:b6:3e:4d:0d:ae:66:8b:0b:
         22:24:70:99:3e:af:94:6a:c5:a5:99:95:0e:8b:d2:a5:b2:d9:
         85:0e:71:65:81:77:74:cd:2d:9c:50:6f:55:15:4d:8d:18:03:
         e4:3c:b1:74:1a:f2:63:ae:58:a4:72:3f:b1:cc:d4:79:71:f3:
         0b:2c:2f:d3:2e:6f:98:80
-----BEGIN CERTIFICATE-----
MIIFoTCCA4mgAwIBAgIURFDat0QJrYNOjChDSx/k5ddQcZMwDQYJKoZIhvcNAQEL
BQAwgaQxEzARBgoJkiaJk/IsZAEZFgNlZHUxFDASBgoJkiaJk/IsZAEZFgR1Y3Nk
MRMwEQYKCZImiZPyLGQBGRYDZTRlMRUwEwYDVQQKDAxVQyBTYW4gRGllZ28xIjAg
BgNVBAsMGUVuZ2luZWVycyBmb3IgRXhwbG9yYXRpb24xJzAlBgNVBAMMHlVDU0Qg
RW5naW5lZXJzIGZvciBFeHBsb3JhdGlvbjAeFw0yNDA3MTIxODU5MjdaFw0yNjA3
MTIxODU5MjdaMIG0MRMwEQYKCZImiZPyLGQBGRYDZWR1MRQwEgYKCZImiZPyLGQB
GRYEdWNzZDETMBEGCgmSJomT8ixkARkWA2U0ZTEVMBMGA1UECgwMVUMgU2FuIERp
ZWdvMSIwIAYDVQQLDBlFbmdpbmVlcnMgZm9yIEV4cGxvcmF0aW9uMTcwNQYDVQQD
DC5lNGUtZmlzaHNlbnNlLW1vYmlsZS1lbmRwb2ludC5keW5hbWljLnVjc2QuZWR1
MIIBIjANBgkqhkiG9w0BAQEFAAOCAQ8AMIIBCgKCAQEAt1rcE+o7I6Cg4Js6EB/J
8FPR9wtiZowRnCwZ/Jw+d8JSLJAgPfrcvxajNp76Yv99z7ZQPtLq53KUpVaxIwfm
gZUD8LKEKwPHhMFGtT5YhPi1H2dpYXEwj0YmrZUAiYmnnntgThtGaqY7hxkWq107
1HC8tSUo5BFNkwuoT1i4T4YgyfQMm2KOyNPvV1/sWQQlTJs0NAZls2CXbe21Z3SX
xtsFJfcwJz6Bz2iJd+viJWqgw/grGteTXgP5wFPkXJHkZkEEx7tfgF3J+poPqsSh
iAVa7001ua6bN/Zy/ypFPgTyr8ACeEC5QypWzO+7+2+YwRD9TxIrd+yy091eIiN6
IwIDAQABo4G4MIG1MA4GA1UdDwEB/wQEAwIFoDAJBgNVHRMEAjAAMB0GA1UdJQQW
MBQGCCsGAQUFBwMBBggrBgEFBQcDAjAdBgNVHQ4EFgQU7STFfkZXQ3a2AGK+EivT
Tmb+kWAwHwYDVR0jBBgwFoAUlQjjHp0tZE5JPqfW9D417lK7luMwOQYDVR0RBDIw
MIIuZTRlLWZpc2hzZW5zZS1tb2JpbGUtZW5kcG9pbnQuZHluYW1pYy51Y3NkLmVk
dTANBgkqhkiG9w0BAQsFAAOCAgEACaqvgkVfPAlcj6sanLYWQ/CnWUWuIN5Zkhl9
Cl2hMBroZXy0ZqSBy6RXKVhewtx6xHI6UaYixaEIKatifiRg8zyDkrGiWXKNKNS0
PkMqwSMj7T1bbTEFAXknhBcdhmi99ke3WDCfkd6NhGIQu6aEpJ4rnWQWXCmmSPkn
ANO8MnfgfGqMJjZ0+iQGthmlLvsGcip1F/reo4AIvBr4ujl9jx24LZaEegC8kY0v
//4H3lXq9R/dgj0NetAA/Fnc+LmXj5hlmT5shvf5rylLFwHygWPM3H/puzqhcVWk
G6H1twl3/z40+NOVnsgJdZsBH4WaGpq7h0SmlrlkjHY80OuIwBiJqG3dkNEIjxTb
ecbErPSJ2J+gwP0UCj/ncMoRNwutKpZtt464Jm7Ng7vkWhrvfs5GuyQ1Ft1pF0zs
aVFvjHJLLYVvsONHEvTxkMBBZ88PQIWZQ4t2LTfnk1yo8vQ/MMY10SSpk7KDVWXz
oh1berHf8Yfy27/gbLhZz26zwFDCGEYBSn08e+FEAlUA402MH8fvatGv6Pazr4tz
W2lWazSFToD+HNZtdfUqSPe1amxGuQnjfr8DhBKDcLY+TQ2uZosLIiRwmT6vlGrF
pZmVDovSpbLZhQ5xZYF3dM0tnFBvVRVNjRgD5DyxdBryY65YpHI/sczUeXHzCywv
0y5vmIA=
-----END CERTIFICATE-----
