Certificate:
    Data:
        Version: 3 (0x2)
        Serial Number:
            73:5a:34:c3:be:0f:da:5b:3f:ba:65:a4:85:e9:02:bb:87:22:6d:48
        Signature Algorithm: sha256WithRSAEncryption
        Issuer: DC=edu, DC=ucsd, DC=e4e, O=UC San Diego, OU=Engineers for Exploration, CN=UCSD Engineers for Exploration
        Validity
            Not Before: Jul 12 21:36:21 2024 GMT
            Not After : Jul 12 21:36:21 2026 GMT
        Subject: DC=edu, DC=ucsd, DC=e4e, O=UC San Diego, OU=Engineers for Exploration FishSense, CN=e4e-fishsense-mobile-endpoint.dynamic.ucsd.edu
        Subject Public Key Info:
            Public Key Algorithm: rsaEncryption
                RSA Public-Key: (4096 bit)
                Modulus:
                    00:bf:7a:94:e0:7b:1a:97:e4:18:28:48:de:1c:38:
                    ce:7e:0b:6f:bf:3b:cf:a1:7b:a6:51:34:6f:45:af:
                    78:d7:91:f7:d5:49:89:1f:e1:9f:00:b1:04:a1:62:
                    b8:f3:5a:9a:50:ef:bf:b0:45:98:f8:34:69:1b:fc:
                    91:bc:26:59:1e:5c:9b:1d:4c:1e:7d:a9:ee:d0:28:
                    c3:af:b5:aa:63:38:86:03:f6:39:59:82:26:fc:a5:
                    58:24:ca:b6:3e:23:ca:78:6a:7c:4a:e4:af:75:c3:
                    2e:62:ee:50:d8:ee:40:a8:14:09:ae:b6:9f:56:41:
                    28:5f:16:3f:cf:90:91:1c:ac:8e:fc:43:15:5c:87:
                    65:f2:bd:1d:7b:d9:95:30:8c:39:43:15:6c:5c:1d:
                    df:75:2d:cc:81:24:ed:43:b9:ff:5d:72:1a:5a:de:
                    d3:50:44:a6:26:41:4e:4f:70:8c:59:c1:8f:af:c9:
                    e4:91:ef:38:e6:93:bb:da:09:af:8a:56:d6:c8:de:
                    ab:7d:51:c2:a9:39:ac:d8:0f:9b:8b:52:9f:5b:95:
                    ae:3a:e2:ef:ee:89:23:4f:62:af:3e:60:c7:77:dd:
                    dc:3a:07:c7:d5:fb:91:75:fd:87:0c:a4:df:9f:a0:
                    34:5a:64:a1:0d:ed:17:7b:77:d1:27:bc:e1:33:d3:
                    c1:41:06:d4:52:b6:c9:27:fc:91:2e:14:e4:a0:26:
                    fc:c5:1e:a7:ac:c4:f8:87:86:5a:f0:0a:df:ce:93:
                    26:f6:35:b3:84:b1:1e:a3:f9:70:38:98:e9:3c:97:
                    aa:0d:66:89:e1:58:54:4a:1e:56:f9:60:5f:52:72:
                    d4:11:99:f8:21:a9:58:04:be:05:2f:4a:9b:60:e4:
                    47:69:22:27:bd:03:ab:d0:f2:f1:80:2c:44:11:4d:
                    41:5b:bb:16:cc:bb:1a:c7:d5:c6:33:4c:33:60:3a:
                    58:68:28:9b:4d:3b:e5:bb:6a:8f:7a:d6:19:fc:b8:
                    51:ac:05:64:cd:09:7b:39:7b:7f:21:8e:95:c8:85:
                    dd:9b:fd:26:70:4a:21:33:49:a3:ae:50:4d:64:49:
                    f2:d4:66:30:12:41:ea:90:b2:e1:82:2e:b3:71:b0:
                    62:f7:ed:0a:e4:85:fe:bd:2f:56:e8:96:f5:7a:20:
                    91:36:28:79:98:dc:e2:01:17:12:e4:0d:cc:77:ae:
                    07:a9:4f:1c:56:f5:d1:7b:83:db:79:aa:85:77:7c:
                    85:34:cb:4f:73:4e:62:2d:97:6d:15:a1:2d:f9:c3:
                    49:c1:c0:b5:1b:52:9c:86:2e:7a:5e:62:20:f2:05:
                    2e:16:6a:5e:46:b0:53:35:65:40:d0:76:aa:49:05:
                    2d:b4:5f
                Exponent: 65537 (0x10001)
        X509v3 extensions:
            X509v3 Key Usage: critical
                Digital Signature, Key Encipherment
            X509v3 Basic Constraints: 
                CA:FALSE
            X509v3 Extended Key Usage: 
                TLS Web Server Authentication, TLS Web Client Authentication
            X509v3 Subject Key Identifier: 
                BD:F0:B6:D1:CC:82:08:97:C4:62:91:35:9D:12:90:5B:11:7D:07:38
            X509v3 Authority Key Identifier: 
                keyid:95:08:E3:1E:9D:2D:64:4E:49:3E:A7:D6:F4:3E:35:EE:52:BB:96:E3

            X509v3 Subject Alternative Name: 
                DNS:e4e-fishsense-mobile-endpoint.dynamic.ucsd.edu
    Signature Algorithm: sha256WithRSAEncryption
         70:20:fc:19:c1:4a:36:ca:b3:ee:0e:cd:b2:61:4d:e8:d6:18:
         35:eb:e2:97:3f:61:ae:62:d2:d7:c4:9c:34:f4:8f:6a:d0:64:
         19:08:5c:9f:a3:be:df:c1:3d:35:53:33:4e:82:68:04:c4:37:
         7c:a9:c0:20:fe:d2:9c:46:62:9f:40:b0:6b:53:c4:92:36:d8:
         be:89:06:28:65:f8:76:04:46:38:ab:e9:9c:9e:36:8c:42:31:
         c4:23:f4:d7:3f:a3:66:16:05:1b:03:3f:b4:5c:f5:8e:86:89:
         3a:83:d7:c1:15:c9:48:47:05:76:63:83:2c:ca:88:cb:d6:73:
         41:38:87:ea:13:8a:ce:17:0d:79:c0:87:35:ee:7b:5b:46:3a:
         51:7d:1e:ed:03:67:99:22:4b:88:c5:ca:74:02:47:c5:65:cf:
         dc:2e:4f:90:d8:61:8d:33:53:8e:19:65:ed:65:a1:07:af:63:
         c2:bb:a6:3b:4c:e1:dd:58:82:e0:42:9c:37:5c:7e:80:fc:81:
         f2:55:7b:be:e5:b6:e1:14:7d:64:ad:5b:65:4f:29:3b:c3:5d:
         b6:e2:b8:0b:48:a4:b2:2e:f5:a7:2f:3b:c9:16:90:be:77:5f:
         b8:0a:a4:3a:0f:09:52:38:c6:58:4e:89:b9:75:60:52:0e:2f:
         8d:11:be:70:3d:86:1b:f1:93:f6:3c:48:89:89:24:2f:2d:eb:
         ac:65:a3:86:73:51:3e:76:bc:d1:68:20:ca:91:07:51:55:2e:
         1a:6c:94:6c:88:60:04:2f:05:00:2b:0f:be:63:e7:38:6c:ef:
         7b:ff:3b:7f:08:11:e9:b7:88:24:42:eb:99:1b:94:bc:c3:61:
         a6:08:1d:26:44:a2:75:64:d2:f1:97:c3:07:49:5c:e8:86:1c:
         af:cd:10:44:3a:05:51:7b:af:5f:bc:0a:20:94:cd:8c:bc:50:
         20:f9:a5:70:fd:c5:94:23:a9:69:bf:ab:14:01:5d:4e:a2:68:
         f0:14:b2:31:82:79:76:22:2f:f9:44:9f:1f:ab:0d:95:9e:50:
         2c:9a:9c:88:6b:c6:7f:bb:c1:f6:11:ca:ca:b9:9d:9c:c2:f7:
         42:1e:38:87:84:4a:7f:bf:93:37:f0:90:17:ae:00:01:1b:f6:
         f7:d5:83:4f:00:b5:f9:b0:bd:5f:77:7d:bd:57:68:8c:17:0f:
         52:66:6d:a3:f1:33:72:ae:f1:e8:05:df:96:96:2a:10:4f:c5:
         60:0a:5e:af:08:db:1f:89:e7:bc:71:27:31:12:bb:e2:cb:98:
         a9:c8:25:ed:45:73:51:9c:ca:23:38:91:86:fe:61:5d:8c:3c:
         fb:ae:d6:f4:c7:14:54:aa
-----BEGIN CERTIFICATE-----
MIIGqzCCBJOgAwIBAgIUc1o0w74P2ls/umWkhekCu4cibUgwDQYJKoZIhvcNAQEL
BQAwgaQxEzARBgoJkiaJk/IsZAEZFgNlZHUxFDASBgoJkiaJk/IsZAEZFgR1Y3Nk
MRMwEQYKCZImiZPyLGQBGRYDZTRlMRUwEwYDVQQKDAxVQyBTYW4gRGllZ28xIjAg
BgNVBAsMGUVuZ2luZWVycyBmb3IgRXhwbG9yYXRpb24xJzAlBgNVBAMMHlVDU0Qg
RW5naW5lZXJzIGZvciBFeHBsb3JhdGlvbjAeFw0yNDA3MTIyMTM2MjFaFw0yNjA3
MTIyMTM2MjFaMIG+MRMwEQYKCZImiZPyLGQBGRYDZWR1MRQwEgYKCZImiZPyLGQB
GRYEdWNzZDETMBEGCgmSJomT8ixkARkWA2U0ZTEVMBMGA1UECgwMVUMgU2FuIERp
ZWdvMSwwKgYDVQQLDCNFbmdpbmVlcnMgZm9yIEV4cGxvcmF0aW9uIEZpc2hTZW5z
ZTE3MDUGA1UEAwwuZTRlLWZpc2hzZW5zZS1tb2JpbGUtZW5kcG9pbnQuZHluYW1p
Yy51Y3NkLmVkdTCCAiIwDQYJKoZIhvcNAQEBBQADggIPADCCAgoCggIBAL96lOB7
GpfkGChI3hw4zn4Lb787z6F7plE0b0WveNeR99VJiR/hnwCxBKFiuPNamlDvv7BF
mPg0aRv8kbwmWR5cmx1MHn2p7tAow6+1qmM4hgP2OVmCJvylWCTKtj4jynhqfErk
r3XDLmLuUNjuQKgUCa62n1ZBKF8WP8+QkRysjvxDFVyHZfK9HXvZlTCMOUMVbFwd
33UtzIEk7UO5/11yGlre01BEpiZBTk9wjFnBj6/J5JHvOOaTu9oJr4pW1sjeq31R
wqk5rNgPm4tSn1uVrjri7+6JI09irz5gx3fd3DoHx9X7kXX9hwyk35+gNFpkoQ3t
F3t30Se84TPTwUEG1FK2ySf8kS4U5KAm/MUep6zE+IeGWvAK386TJvY1s4SxHqP5
cDiY6TyXqg1mieFYVEoeVvlgX1Jy1BGZ+CGpWAS+BS9Km2DkR2kiJ70Dq9Dy8YAs
RBFNQVu7Fsy7GsfVxjNMM2A6WGgom0075btqj3rWGfy4UawFZM0Jezl7fyGOlciF
3Zv9JnBKITNJo65QTWRJ8tRmMBJB6pCy4YIus3GwYvftCuSF/r0vVuiW9XogkTYo
eZjc4gEXEuQNzHeuB6lPHFb10XuD23mqhXd8hTTLT3NOYi2XbRWhLfnDScHAtRtS
nIYuel5iIPIFLhZqXkawUzVlQNB2qkkFLbRfAgMBAAGjgbgwgbUwDgYDVR0PAQH/
BAQDAgWgMAkGA1UdEwQCMAAwHQYDVR0lBBYwFAYIKwYBBQUHAwEGCCsGAQUFBwMC
MB0GA1UdDgQWBBS98LbRzIIIl8RikTWdEpBbEX0HODAfBgNVHSMEGDAWgBSVCOMe
nS1kTkk+p9b0PjXuUruW4zA5BgNVHREEMjAwgi5lNGUtZmlzaHNlbnNlLW1vYmls
ZS1lbmRwb2ludC5keW5hbWljLnVjc2QuZWR1MA0GCSqGSIb3DQEBCwUAA4ICAQBw
IPwZwUo2yrPuDs2yYU3o1hg16+KXP2GuYtLXxJw09I9q0GQZCFyfo77fwT01UzNO
gmgExDd8qcAg/tKcRmKfQLBrU8SSNti+iQYoZfh2BEY4q+mcnjaMQjHEI/TXP6Nm
FgUbAz+0XPWOhok6g9fBFclIRwV2Y4MsyojL1nNBOIfqE4rOFw15wIc17ntbRjpR
fR7tA2eZIkuIxcp0AkfFZc/cLk+Q2GGNM1OOGWXtZaEHr2PCu6Y7TOHdWILgQpw3
XH6A/IHyVXu+5bbhFH1krVtlTyk7w1224rgLSKSyLvWnLzvJFpC+d1+4CqQ6DwlS
OMZYTom5dWBSDi+NEb5wPYYb8ZP2PEiJiSQvLeusZaOGc1E+drzRaCDKkQdRVS4a
bJRsiGAELwUAKw++Y+c4bO97/zt/CBHpt4gkQuuZG5S8w2GmCB0mRKJ1ZNLxl8MH
SVzohhyvzRBEOgVRe69fvAoglM2MvFAg+aVw/cWUI6lpv6sUAV1OomjwFLIxgnl2
Ii/5RJ8fqw2VnlAsmpyIa8Z/u8H2EcrKuZ2cwvdCHjiHhEp/v5M38JAXrgABG/b3
1YNPALX5sL1fd329V2iMFw9SZm2j8TNyrvHoBd+WlioQT8VgCl6vCNsfiee8cScx
Erviy5ipyCXtRXNRnMojOJGG/mFdjDz7rtb0xxRUqg==
-----END CERTIFICATE-----
