Certificate:
    Data:
        Version: 3 (0x2)
        Serial Number:
            24:b4:4c:02:7e:0c:69:74:17:35:1e:0a:9a:ef:c5:b0:8a:5d:99:9e
        Signature Algorithm: sha256WithRSAEncryption
        Issuer: DC=edu, DC=ucsd, DC=e4e, O=UCSD Engineers for Exploration, CN=Engineers for Exploration CA
        Validity
            Not Before: Jul  5 00:20:18 2024 GMT
            Not After : Jul  5 00:20:18 2026 GMT
        Subject: DC=edu, DC=ucsd, DC=e4e-fishsense-mobile-endpoint, O=UCSD Engineers for Exploration, OU=FishSense, CN=e4e-fishsense-mobile-endpoint.dynamic.ucsd.edu
        Subject Public Key Info:
            Public Key Algorithm: rsaEncryption
                RSA Public-Key: (2048 bit)
                Modulus:
                    00:b7:5a:dc:13:ea:3b:23:a0:a0:e0:9b:3a:10:1f:
                    c9:f0:53:d1:f7:0b:62:66:8c:11:9c:2c:19:fc:9c:
                    3e:77:c2:52:2c:90:20:3d:fa:dc:bf:16:a3:36:9e:
                    fa:62:ff:7d:cf:b6:50:3e:d2:ea:e7:72:94:a5:56:
                    b1:23:07:e6:81:95:03:f0:b2:84:2b:03:c7:84:c1:
                    46:b5:3e:58:84:f8:b5:1f:67:69:61:71:30:8f:46:
                    26:ad:95:00:89:89:a7:9e:7b:60:4e:1b:46:6a:a6:
                    3b:87:19:16:ab:5d:3b:d4:70:bc:b5:25:28:e4:11:
                    4d:93:0b:a8:4f:58:b8:4f:86:20:c9:f4:0c:9b:62:
                    8e:c8:d3:ef:57:5f:ec:59:04:25:4c:9b:34:34:06:
                    65:b3:60:97:6d:ed:b5:67:74:97:c6:db:05:25:f7:
                    30:27:3e:81:cf:68:89:77:eb:e2:25:6a:a0:c3:f8:
                    2b:1a:d7:93:5e:03:f9:c0:53:e4:5c:91:e4:66:41:
                    04:c7:bb:5f:80:5d:c9:fa:9a:0f:aa:c4:a1:88:05:
                    5a:ef:4d:35:b9:ae:9b:37:f6:72:ff:2a:45:3e:04:
                    f2:af:c0:02:78:40:b9:43:2a:56:cc:ef:bb:fb:6f:
                    98:c1:10:fd:4f:12:2b:77:ec:b2:d3:dd:5e:22:23:
                    7a:23
                Exponent: 65537 (0x10001)
        X509v3 extensions:
            X509v3 Key Usage: critical
                Digital Signature, Key Encipherment
            X509v3 Basic Constraints: 
                CA:FALSE
            X509v3 Extended Key Usage: 
                TLS Web Server Authentication, TLS Web Client Authentication
            X509v3 Subject Key Identifier: 
                ED:24:C5:7E:46:57:43:76:B6:00:62:BE:12:2B:D3:4E:66:FE:91:60
            X509v3 Authority Key Identifier: 
                keyid:8D:A2:E1:2F:FB:61:89:80:C7:3C:43:C0:1B:94:BD:BF:1A:4B:E6:6B

            X509v3 Subject Alternative Name: 
                DNS:e4e-fishsense-mobile-endpoint.dynamic.ucsd.edu
    Signature Algorithm: sha256WithRSAEncryption
         1d:39:1d:96:08:b5:fc:4e:63:6f:c6:2d:6f:97:84:a1:5f:cc:
         f7:62:b7:3c:8c:9c:68:f4:06:12:7b:dc:d5:1c:10:c0:84:b1:
         0e:56:4f:5f:75:7d:3a:24:54:59:73:81:09:32:ec:7a:fa:ff:
         23:53:1d:f4:a8:5d:99:90:9c:b0:6a:4b:f8:f5:a9:42:bb:34:
         39:e8:12:60:61:32:a6:7a:b8:d7:7a:f6:85:78:17:90:48:32:
         72:5d:0d:7b:27:9d:6f:38:d5:1f:d3:03:d0:7a:f7:5d:74:27:
         62:f0:c1:dc:6a:64:09:94:8f:bb:60:b2:15:bc:0e:35:14:04:
         6d:1a:b4:1c:a3:df:b4:13:d1:33:3d:d3:8d:12:66:93:79:f7:
         02:e4:91:a9:78:81:b1:85:f2:15:87:af:db:63:b9:d5:c0:4e:
         a6:2f:66:1a:7f:50:0c:4a:e8:e8:fa:32:60:f3:9c:fb:6c:2b:
         43:88:44:fb:bf:a3:93:9f:28:73:5a:a3:af:35:4c:16:f7:2b:
         cb:ad:6e:25:e9:d5:5a:87:e6:96:3c:7b:db:c3:f6:52:cf:b8:
         52:8c:1f:1c:91:4b:33:8c:23:bc:08:a3:b6:df:00:89:b9:1d:
         2f:bf:cb:8a:db:26:08:86:8c:a9:46:90:54:5d:82:27:40:8e:
         aa:3d:46:6b
-----BEGIN CERTIFICATE-----
MIIEqTCCA5GgAwIBAgIUJLRMAn4MaXQXNR4Kmu/FsIpdmZ4wDQYJKoZIhvcNAQEL
BQAwgZAxEzARBgoJkiaJk/IsZAEZFgNlZHUxFDASBgoJkiaJk/IsZAEZFgR1Y3Nk
MRMwEQYKCZImiZPyLGQBGRYDZTRlMScwJQYDVQQKDB5VQ1NEIEVuZ2luZWVycyBm
b3IgRXhwbG9yYXRpb24xJTAjBgNVBAMMHEVuZ2luZWVycyBmb3IgRXhwbG9yYXRp
b24gQ0EwHhcNMjQwNzA1MDAyMDE4WhcNMjYwNzA1MDAyMDE4WjCB0DETMBEGCgmS
JomT8ixkARkWA2VkdTEUMBIGCgmSJomT8ixkARkWBHVjc2QxLTArBgoJkiaJk/Is
ZAEZFh1lNGUtZmlzaHNlbnNlLW1vYmlsZS1lbmRwb2ludDEnMCUGA1UECgweVUNT
RCBFbmdpbmVlcnMgZm9yIEV4cGxvcmF0aW9uMRIwEAYDVQQLDAlGaXNoU2Vuc2Ux
NzA1BgNVBAMMLmU0ZS1maXNoc2Vuc2UtbW9iaWxlLWVuZHBvaW50LmR5bmFtaWMu
dWNzZC5lZHUwggEiMA0GCSqGSIb3DQEBAQUAA4IBDwAwggEKAoIBAQC3WtwT6jsj
oKDgmzoQH8nwU9H3C2JmjBGcLBn8nD53wlIskCA9+ty/FqM2nvpi/33PtlA+0urn
cpSlVrEjB+aBlQPwsoQrA8eEwUa1PliE+LUfZ2lhcTCPRiatlQCJiaeee2BOG0Zq
pjuHGRarXTvUcLy1JSjkEU2TC6hPWLhPhiDJ9AybYo7I0+9XX+xZBCVMmzQ0BmWz
YJdt7bVndJfG2wUl9zAnPoHPaIl36+IlaqDD+Csa15NeA/nAU+RckeRmQQTHu1+A
Xcn6mg+qxKGIBVrvTTW5rps39nL/KkU+BPKvwAJ4QLlDKlbM77v7b5jBEP1PEit3
7LLT3V4iI3ojAgMBAAGjgbgwgbUwDgYDVR0PAQH/BAQDAgWgMAkGA1UdEwQCMAAw
HQYDVR0lBBYwFAYIKwYBBQUHAwEGCCsGAQUFBwMCMB0GA1UdDgQWBBTtJMV+RldD
drYAYr4SK9NOZv6RYDAfBgNVHSMEGDAWgBSNouEv+2GJgMc8Q8AblL2/GkvmazA5
BgNVHREEMjAwgi5lNGUtZmlzaHNlbnNlLW1vYmlsZS1lbmRwb2ludC5keW5hbWlj
LnVjc2QuZWR1MA0GCSqGSIb3DQEBCwUAA4IBAQAdOR2WCLX8TmNvxi1vl4ShX8z3
Yrc8jJxo9AYSe9zVHBDAhLEOVk9fdX06JFRZc4EJMux6+v8jUx30qF2ZkJywakv4
9alCuzQ56BJgYTKmerjXevaFeBeQSDJyXQ17J51vONUf0wPQevdddCdi8MHcamQJ
lI+7YLIVvA41FARtGrQco9+0E9EzPdONEmaTefcC5JGpeIGxhfIVh6/bY7nVwE6m
L2Yaf1AMSujo+jJg85z7bCtDiET7v6OTnyhzWqOvNUwW9yvLrW4l6dVah+aWPHvb
w/ZSz7hSjB8ckUszjCO8CKO23wCJuR0vv8uK2yYIhoypRpBUXYInQI6qPUZr
-----END CERTIFICATE-----
