Certificate:
    Data:
        Version: 3 (0x2)
        Serial Number:
            5a:28:14:b9:9c:c1:da:1b:f6:65:c4:88:f6:58:db:f9:c0:39:d3:e0
        Signature Algorithm: sha256WithRSAEncryption
        Issuer: DC=edu, DC=ucsd, DC=e4e, O=UC San Diego, OU=Engineers for Exploration, CN=UCSD Engineers for Exploration
        Validity
            Not Before: May  5 16:26:25 2025 GMT
            Not After : May  5 16:26:25 2027 GMT
        Subject: DC=edu, DC=ucsd, DC=kastner-ml, O=UCSD E4E, OU=E4E, CN=kastner-ml.ucsd.edu
        Subject Public Key Info:
            Public Key Algorithm: rsaEncryption
                Public-Key: (4096 bit)
                Modulus:
                    00:af:f5:c6:4a:c7:5a:f6:24:30:c9:6a:a5:fe:76:
                    b9:68:4d:e4:7e:40:d7:c4:16:b9:81:f6:a1:b0:3b:
                    92:21:c8:28:b4:35:5d:1e:de:60:3d:2c:01:0a:59:
                    55:2c:ba:e2:5c:ab:bb:d2:eb:29:af:e8:b2:1d:f8:
                    20:9e:23:a4:e2:52:16:3a:2a:d8:9e:47:c5:22:9e:
                    f2:b2:29:3c:16:9f:a6:06:c6:8d:a9:1b:0d:94:ae:
                    ae:9c:bf:7c:5d:b3:d2:bf:96:04:d7:c9:55:a9:ad:
                    01:f5:71:0d:96:37:b8:a4:e4:8a:70:ae:c6:91:fd:
                    55:05:d8:08:00:7e:74:4d:43:74:c0:eb:47:47:a5:
                    98:f3:70:47:e6:37:24:db:39:8e:7f:79:77:8f:9c:
                    e5:f8:92:24:5e:11:88:e8:26:65:78:0c:51:f1:69:
                    67:b7:cb:9f:1a:9c:7e:23:84:e4:ab:67:0f:3d:fe:
                    67:af:ac:d5:c8:58:cf:4a:d7:f8:54:df:8e:7b:7f:
                    34:a8:18:7a:cb:5d:6c:25:3b:fe:42:a7:12:b2:36:
                    48:5c:00:e6:54:75:c2:e9:dd:2f:57:61:be:c1:fc:
                    6e:78:78:41:10:96:0c:97:fe:e2:6b:01:03:d8:0f:
                    49:0a:f6:0c:57:f9:0b:c4:c3:9f:0b:34:21:e5:fb:
                    f4:e3:7a:44:92:6f:af:e9:34:45:7e:8d:09:70:9a:
                    0f:ba:71:f6:ca:76:25:16:83:ae:f4:4c:e4:73:89:
                    9a:50:66:17:72:bc:eb:eb:f6:be:82:46:0a:3d:3b:
                    8b:3b:ed:b3:02:93:06:2b:da:03:5c:0c:6a:c9:b0:
                    10:1b:30:7a:37:58:f5:cd:64:cb:01:ce:16:e9:db:
                    e7:be:b0:f3:b3:16:4e:22:fc:c1:45:9c:6d:58:9a:
                    80:ab:da:d6:7e:e3:12:50:f0:b3:d4:d8:49:4d:ff:
                    17:ae:18:c6:b8:fc:8c:f4:b5:67:74:57:1e:1a:00:
                    a8:fe:1b:cd:9c:19:95:30:e4:64:fd:95:3b:24:06:
                    b3:7f:cb:5d:20:ff:d2:d2:0e:92:ee:ac:28:62:3d:
                    ed:f1:59:6a:38:98:0f:d5:c8:32:1d:cd:18:07:06:
                    62:86:85:35:02:ff:9c:1a:95:d2:4d:51:37:bc:31:
                    e0:ba:db:2a:53:32:33:5f:4e:f3:6c:f0:c0:ba:ee:
                    9a:3f:b6:c7:f5:94:c0:05:03:02:99:21:f9:1c:de:
                    4d:93:9c:6e:21:85:87:15:b1:65:32:89:c7:21:d1:
                    82:15:bb:c9:33:ce:49:2a:79:9c:bf:23:cf:3e:56:
                    fb:17:4b:fa:f2:72:0b:58:9b:2d:28:fe:39:ca:5b:
                    47:01:ed
                Exponent: 65537 (0x10001)
        X509v3 extensions:
            X509v3 Key Usage: critical
                Digital Signature, Key Encipherment
            X509v3 Basic Constraints: 
                CA:FALSE
            X509v3 Extended Key Usage: 
                TLS Web Server Authentication, TLS Web Client Authentication
            X509v3 Subject Key Identifier: 
                63:C2:0D:91:87:1D:97:8F:AA:EF:49:DE:8D:EC:3F:16:AC:55:1D:BF
            X509v3 Authority Key Identifier: 
                62:38:B1:82:A7:13:C1:4A:C2:71:9A:B6:03:C2:20:83:21:7F:26:81
            X509v3 Subject Alternative Name: 
                DNS:kastner-ml.ucsd.edu
    Signature Algorithm: sha256WithRSAEncryption
    Signature Value:
        1b:29:50:2b:52:4b:93:65:bd:a5:db:6d:e6:75:b5:05:61:ea:
        99:f8:0f:5a:04:c4:da:99:37:85:be:a8:0a:be:e2:c8:48:41:
        7c:26:d9:6d:7d:9d:10:f2:d3:a9:00:f3:a8:0a:48:47:e9:fa:
        30:12:e9:29:01:6f:9b:51:d3:17:b3:3f:e5:29:f1:cb:12:44:
        53:59:0c:24:34:b1:e0:67:cd:3a:46:e7:bf:6e:03:21:6b:7a:
        5d:dd:2e:0c:22:f3:a5:e2:ec:81:93:8d:e0:65:7a:2a:8c:cd:
        a0:de:4f:e8:94:69:ba:40:a4:c7:83:46:df:2b:5e:5d:e3:1a:
        05:1d:a7:74:b7:0e:35:3d:d7:1b:16:e0:65:dd:d5:43:28:9c:
        b8:50:af:4b:24:28:5f:00:e3:f7:f2:a7:66:26:cd:60:1f:40:
        4a:53:c6:67:a3:a8:fe:6a:5a:01:53:10:be:b1:b3:37:c1:61:
        ee:93:4a:72:16:61:71:76:83:b5:68:00:cd:9e:d5:e5:eb:6f:
        41:49:ce:8e:9e:f7:28:5f:dd:6a:df:3f:fd:23:23:c2:25:d6:
        bd:32:a2:7d:c1:44:5e:70:9d:04:ba:63:39:3a:42:5e:68:49:
        41:70:de:9e:0e:96:a2:19:26:ec:09:58:d4:dc:da:28:d7:a7:
        49:39:c4:2e:09:b9:f0:96:14:d1:8a:01:68:23:50:65:77:83:
        ea:25:5c:7e:93:c5:6b:75:29:76:b1:86:77:af:ee:25:59:ec:
        7a:ea:5a:73:18:3d:22:09:67:03:c7:7e:53:06:cf:e8:5e:3f:
        49:bb:e9:78:3a:68:be:80:de:12:e8:e3:d7:31:a5:a5:d9:2d:
        d0:85:07:4c:de:f1:9d:e9:9a:08:89:a6:eb:c3:da:80:93:80:
        45:22:b4:f4:f7:cb:24:97:38:7f:3d:fc:5e:10:7e:1c:4f:34:
        9b:1b:25:00:a4:2b:68:39:fa:2b:7c:c8:0b:ee:78:4c:bd:37:
        6b:ba:0e:da:59:9c:24:9e:30:59:ff:a9:9a:30:74:ff:e2:f3:
        20:56:8b:a1:35:d4:73:3a:d6:79:5a:e1:ca:a8:af:10:f7:53:
        e4:9c:e6:40:a6:7a:a2:b5:62:44:3b:59:3a:16:7b:37:06:06:
        03:da:6b:c2:ca:d1:97:8f:d8:35:03:cc:c8:29:19:03:c8:2b:
        58:97:74:3d:8b:0d:c7:05:e1:47:c5:ae:3c:a0:69:03:ae:84:
        7f:ea:9c:bc:5b:f2:35:76:96:21:ac:d3:a8:10:7b:c1:26:82:
        83:dd:e4:6f:40:55:d4:4d:e5:27:17:09:43:cb:60:ae:12:cb:
        a7:95:56:2d:d9:ba:15:39
-----BEGIN CERTIFICATE-----
MIIGWDCCBECgAwIBAgIUWigUuZzB2hv2ZcSI9ljb+cA50+AwDQYJKoZIhvcNAQEL
BQAwgaQxEzARBgoJkiaJk/IsZAEZFgNlZHUxFDASBgoJkiaJk/IsZAEZFgR1Y3Nk
MRMwEQYKCZImiZPyLGQBGRYDZTRlMRUwEwYDVQQKDAxVQyBTYW4gRGllZ28xIjAg
BgNVBAsMGUVuZ2luZWVycyBmb3IgRXhwbG9yYXRpb24xJzAlBgNVBAMMHlVDU0Qg
RW5naW5lZXJzIGZvciBFeHBsb3JhdGlvbjAeFw0yNTA1MDUxNjI2MjVaFw0yNzA1
MDUxNjI2MjVaMIGGMRMwEQYKCZImiZPyLGQBGRYDZWR1MRQwEgYKCZImiZPyLGQB
GRYEdWNzZDEaMBgGCgmSJomT8ixkARkWCmthc3RuZXItbWwxETAPBgNVBAoMCFVD
U0QgRTRFMQwwCgYDVQQLDANFNEUxHDAaBgNVBAMME2thc3RuZXItbWwudWNzZC5l
ZHUwggIiMA0GCSqGSIb3DQEBAQUAA4ICDwAwggIKAoICAQCv9cZKx1r2JDDJaqX+
drloTeR+QNfEFrmB9qGwO5IhyCi0NV0e3mA9LAEKWVUsuuJcq7vS6ymv6LId+CCe
I6TiUhY6KtieR8UinvKyKTwWn6YGxo2pGw2Urq6cv3xds9K/lgTXyVWprQH1cQ2W
N7ik5IpwrsaR/VUF2AgAfnRNQ3TA60dHpZjzcEfmNyTbOY5/eXePnOX4kiReEYjo
JmV4DFHxaWe3y58anH4jhOSrZw89/mevrNXIWM9K1/hU3457fzSoGHrLXWwlO/5C
pxKyNkhcAOZUdcLp3S9XYb7B/G54eEEQlgyX/uJrAQPYD0kK9gxX+QvEw58LNCHl
+/TjekSSb6/pNEV+jQlwmg+6cfbKdiUWg670TORziZpQZhdyvOvr9r6CRgo9O4s7
7bMCkwYr2gNcDGrJsBAbMHo3WPXNZMsBzhbp2+e+sPOzFk4i/MFFnG1YmoCr2tZ+
4xJQ8LPU2ElN/xeuGMa4/Iz0tWd0Vx4aAKj+G82cGZUw5GT9lTskBrN/y10g/9LS
DpLurChiPe3xWWo4mA/VyDIdzRgHBmKGhTUC/5waldJNUTe8MeC62ypTMjNfTvNs
8MC67po/tsf1lMAFAwKZIfkc3k2TnG4hhYcVsWUyicch0YIVu8kzzkkqeZy/I88+
VvsXS/rycgtYmy0o/jnKW0cB7QIDAQABo4GdMIGaMA4GA1UdDwEB/wQEAwIFoDAJ
BgNVHRMEAjAAMB0GA1UdJQQWMBQGCCsGAQUFBwMBBggrBgEFBQcDAjAdBgNVHQ4E
FgQUY8INkYcdl4+q70nejew/FqxVHb8wHwYDVR0jBBgwFoAUYjixgqcTwUrCcZq2
A8IggyF/JoEwHgYDVR0RBBcwFYITa2FzdG5lci1tbC51Y3NkLmVkdTANBgkqhkiG
9w0BAQsFAAOCAgEAGylQK1JLk2W9pdtt5nW1BWHqmfgPWgTE2pk3hb6oCr7iyEhB
fCbZbX2dEPLTqQDzqApIR+n6MBLpKQFvm1HTF7M/5SnxyxJEU1kMJDSx4GfNOkbn
v24DIWt6Xd0uDCLzpeLsgZON4GV6KozNoN5P6JRpukCkx4NG3yteXeMaBR2ndLcO
NT3XGxbgZd3VQyicuFCvSyQoXwDj9/KnZibNYB9ASlPGZ6Oo/mpaAVMQvrGzN8Fh
7pNKchZhcXaDtWgAzZ7V5etvQUnOjp73KF/dat8//SMjwiXWvTKifcFEXnCdBLpj
OTpCXmhJQXDeng6Wohkm7AlY1NzaKNenSTnELgm58JYU0YoBaCNQZXeD6iVcfpPF
a3UpdrGGd6/uJVnseupacxg9IglnA8d+UwbP6F4/SbvpeDpovoDeEujj1zGlpdkt
0IUHTN7xnemaCImm68PagJOARSK09PfLJJc4fz38XhB+HE80mxslAKQraDn6K3zI
C+54TL03a7oO2lmcJJ4wWf+pmjB0/+LzIFaLoTXUczrWeVrhyqivEPdT5JzmQKZ6
orViRDtZOhZ7NwYGA9prwsrRl4/YNQPMyCkZA8grWJd0PYsNxwXhR8WuPKBpA66E
f+qcvFvyNXaWIazTqBB7wSaCg93kb0BV1E3lJxcJQ8tgrhLLp5VWLdm6FTk=
-----END CERTIFICATE-----
