Certificate:
    Data:
        Version: 3 (0x2)
        Serial Number:
            06:72:d0:f2:6b:4e:8e:29:59:65:2e:0d:dd:26:b0:85:16:1e:28:3e
        Signature Algorithm: sha256WithRSAEncryption
        Issuer: DC=edu, DC=ucsd, DC=e4e, O=UC San Diego, OU=Engineers for Exploration, CN=UCSD Engineers for Exploration
        Validity
            Not Before: Jul 12 18:09:54 2024 GMT
            Not After : Jul 12 18:09:54 2034 GMT
        Subject: DC=edu, DC=ucsd, DC=e4e, O=UC San Diego, OU=Engineers for Exploration, CN=UCSD Engineers for Exploration
        Subject Public Key Info:
            Public Key Algorithm: rsaEncryption
                RSA Public-Key: (4096 bit)
                Modulus:
                    00:b3:64:ec:b1:76:6c:1c:3c:b9:7b:64:a7:f1:a4:
                    70:7a:93:c0:6b:8f:74:ef:70:19:43:36:dc:59:78:
                    0c:c5:3b:29:80:7a:db:e2:9d:3e:ac:33:bc:1a:77:
                    fc:43:22:a6:61:cd:28:e9:4c:ee:c5:04:14:62:04:
                    ba:4a:3c:53:9a:8e:d4:dd:6d:b2:ea:8b:09:0f:a9:
                    5a:e0:26:af:02:35:45:e0:17:26:95:3a:20:f4:05:
                    7f:51:12:d3:eb:82:96:c8:44:69:4f:28:96:80:bf:
                    35:6d:74:f4:02:31:ac:dc:84:fd:a4:fe:09:61:48:
                    03:51:2f:37:5d:1d:1c:09:37:48:ed:b9:be:43:2f:
                    80:70:25:92:c8:26:dd:41:cf:bd:a9:14:7a:ea:d2:
                    82:67:ac:f8:53:a1:90:f8:93:dd:b4:cb:98:ca:43:
                    bb:97:89:8a:d2:e2:6f:a1:3e:81:93:8b:50:96:f8:
                    dc:cd:1f:67:7c:d5:1b:fc:bf:45:59:c8:05:2d:32:
                    5c:1e:ce:00:47:0d:c0:4c:fd:cb:cc:44:9b:d5:5d:
                    0c:7d:e3:11:87:a5:d2:c6:6a:a6:3e:52:5f:bc:a0:
                    c9:29:d3:86:ad:51:67:70:86:c1:ee:d6:64:cd:a7:
                    39:84:fc:3e:e9:eb:c0:34:b0:2f:97:ac:1a:f1:22:
                    45:c2:18:2d:32:6e:83:ab:9c:2e:60:08:4e:d7:e3:
                    8a:05:42:ff:04:e7:36:2f:c1:ee:a3:65:ee:80:ff:
                    1e:37:bd:cc:76:2e:b2:f2:90:1a:b0:81:d1:f4:18:
                    a4:18:fe:cc:e3:9c:e7:d1:77:74:66:0a:8d:fd:7f:
                    12:4c:a2:17:b0:a3:e3:c9:5c:be:96:33:ee:88:62:
                    39:72:1a:a0:f6:0c:17:cc:ac:be:15:92:3c:88:31:
                    fe:80:e6:75:f4:1f:d5:92:7f:b0:3a:24:56:d1:4b:
                    63:55:d6:85:15:d0:33:fb:5f:cc:83:24:ae:cc:d0:
                    5a:e0:0b:40:3d:2c:b3:12:c2:04:8a:9c:7b:b1:32:
                    3e:86:a1:79:1e:58:69:47:7d:f3:e4:f3:ac:78:f3:
                    e2:ee:1c:2b:cb:4c:5c:4a:4f:34:d1:27:bf:66:de:
                    62:6a:1a:d2:a7:5e:6d:3c:f6:ee:3e:8d:a5:61:31:
                    34:43:8e:09:fd:37:2d:91:cb:e3:4d:56:41:a7:08:
                    19:44:57:00:2b:a4:b0:5c:62:83:7e:d1:29:d6:7e:
                    cf:46:43:0e:31:56:c6:ee:cb:b1:f6:fe:ec:c1:bd:
                    2f:22:a6:e7:0f:bd:30:f2:7a:e7:78:6b:f4:bb:49:
                    f2:57:68:bf:69:0f:27:f8:50:b3:89:35:f4:7e:73:
                    da:cb:cd
                Exponent: 65537 (0x10001)
        X509v3 extensions:
            X509v3 Key Usage: critical
                Certificate Sign, CRL Sign
            X509v3 Basic Constraints: critical
                CA:TRUE, pathlen:0
            X509v3 Subject Key Identifier: 
                95:08:E3:1E:9D:2D:64:4E:49:3E:A7:D6:F4:3E:35:EE:52:BB:96:E3
            X509v3 Authority Key Identifier: 
                keyid:58:E1:69:F3:78:77:26:12:7B:89:D9:73:4A:50:41:A5:86:4F:F2:01

    Signature Algorithm: sha256WithRSAEncryption
         7d:a2:78:07:6b:24:fe:9d:ef:73:80:87:af:be:00:0e:1c:c2:
         68:c4:c8:32:cd:ea:8c:78:0d:35:a4:64:ef:d2:d7:2e:50:2e:
         ba:97:c7:ee:db:e3:dc:26:d6:20:82:39:21:b5:7f:a0:df:52:
         8f:4a:d4:c0:8b:7e:78:93:8d:52:c4:31:63:a5:74:09:d4:72:
         35:c9:1c:04:f3:fa:04:09:4f:e9:49:62:f8:07:20:41:55:a5:
         19:78:7a:d2:bc:72:ab:3c:32:36:74:fc:44:2f:33:ef:1d:09:
         ae:29:34:18:f6:b4:9d:dd:56:57:97:cb:b5:d5:32:79:37:35:
         64:ae:b9:8a:b6:22:ac:a6:d1:fc:83:d4:d1:ef:66:1c:9e:68:
         b2:1f:09:ac:e6:16:91:0d:81:aa:26:1d:b8:b2:64:6d:95:66:
         45:ed:70:11:a1:c5:b3:3d:d1:9d:6d:a5:7c:de:6f:14:a3:a4:
         cb:86:6c:d2:ab:72:9a:a1:a4:35:59:d9:96:c2:00:bb:69:79:
         1a:09:01:7e:db:e7:6e:4f:0b:94:27:5b:0a:64:90:00:b5:5a:
         cf:20:65:98:54:fb:93:86:22:f2:06:5d:5c:4c:e2:62:f6:25:
         b9:ba:11:4b:73:a3:a4:20:5f:c7:42:69:4c:5d:0f:df:73:8b:
         f0:00:c8:66:e9:a3:91:9a:8b:0e:57:bc:a4:09:87:95:97:9c:
         a4:11:ff:b9:98:19:6a:0b:08:48:30:c2:73:3b:a8:6d:5e:c9:
         ca:ce:61:e6:50:6d:79:2d:a1:18:cb:e2:8f:fc:16:de:ec:1c:
         21:38:b4:c5:a6:63:a6:49:39:e4:74:fb:08:ad:c6:eb:29:70:
         2f:50:07:9a:94:f6:b1:2a:ed:ff:b9:a4:a3:20:e5:77:d6:ea:
         5d:eb:49:43:5b:3b:23:25:13:5e:af:3d:22:6d:1b:39:a9:55:
         c4:63:39:3a:01:cd:b0:50:bd:71:52:0d:75:6d:f2:b8:ce:86:
         10:11:a5:2e:16:47:35:df:45:fd:3d:93:ea:9b:0a:a6:74:83:
         ea:fa:d2:1d:a3:8d:29:7e:10:71:02:16:49:66:c7:22:0b:da:
         f9:59:d9:6c:81:99:92:db:d6:10:7f:4b:62:3f:ec:62:bd:a3:
         50:34:13:a8:ce:30:3e:49:b8:a8:15:bd:28:d4:dc:35:b0:ef:
         81:1d:9c:d7:7e:c5:40:65:21:69:00:af:12:31:94:99:f5:04:
         6e:a6:6d:b5:5b:54:e9:ed:32:7c:72:ea:de:65:0a:1b:4c:64:
         db:a4:4b:2f:ec:ca:c3:25:b1:72:dc:6d:09:30:ea:f5:f4:72:
         78:e2:87:39:73:49:09:a8
-----BEGIN CERTIFICATE-----
MIIGPjCCBCagAwIBAgIUBnLQ8mtOjilZZS4N3SawhRYeKD4wDQYJKoZIhvcNAQEL
BQAwgaQxEzARBgoJkiaJk/IsZAEZFgNlZHUxFDASBgoJkiaJk/IsZAEZFgR1Y3Nk
MRMwEQYKCZImiZPyLGQBGRYDZTRlMRUwEwYDVQQKDAxVQyBTYW4gRGllZ28xIjAg
BgNVBAsMGUVuZ2luZWVycyBmb3IgRXhwbG9yYXRpb24xJzAlBgNVBAMMHlVDU0Qg
RW5naW5lZXJzIGZvciBFeHBsb3JhdGlvbjAeFw0yNDA3MTIxODA5NTRaFw0zNDA3
MTIxODA5NTRaMIGkMRMwEQYKCZImiZPyLGQBGRYDZWR1MRQwEgYKCZImiZPyLGQB
GRYEdWNzZDETMBEGCgmSJomT8ixkARkWA2U0ZTEVMBMGA1UECgwMVUMgU2FuIERp
ZWdvMSIwIAYDVQQLDBlFbmdpbmVlcnMgZm9yIEV4cGxvcmF0aW9uMScwJQYDVQQD
DB5VQ1NEIEVuZ2luZWVycyBmb3IgRXhwbG9yYXRpb24wggIiMA0GCSqGSIb3DQEB
AQUAA4ICDwAwggIKAoICAQCzZOyxdmwcPLl7ZKfxpHB6k8Brj3TvcBlDNtxZeAzF
OymAetvinT6sM7wad/xDIqZhzSjpTO7FBBRiBLpKPFOajtTdbbLqiwkPqVrgJq8C
NUXgFyaVOiD0BX9REtPrgpbIRGlPKJaAvzVtdPQCMazchP2k/glhSANRLzddHRwJ
N0jtub5DL4BwJZLIJt1Bz72pFHrq0oJnrPhToZD4k920y5jKQ7uXiYrS4m+hPoGT
i1CW+NzNH2d81Rv8v0VZyAUtMlwezgBHDcBM/cvMRJvVXQx94xGHpdLGaqY+Ul+8
oMkp04atUWdwhsHu1mTNpzmE/D7p68A0sC+XrBrxIkXCGC0yboOrnC5gCE7X44oF
Qv8E5zYvwe6jZe6A/x43vcx2LrLykBqwgdH0GKQY/szjnOfRd3RmCo39fxJMohew
o+PJXL6WM+6IYjlyGqD2DBfMrL4VkjyIMf6A5nX0H9WSf7A6JFbRS2NV1oUV0DP7
X8yDJK7M0FrgC0A9LLMSwgSKnHuxMj6GoXkeWGlHffPk86x48+LuHCvLTFxKTzTR
J79m3mJqGtKnXm089u4+jaVhMTRDjgn9Ny2Ry+NNVkGnCBlEVwArpLBcYoN+0SnW
fs9GQw4xVsbuy7H2/uzBvS8ipucPvTDyeud4a/S7SfJXaL9pDyf4ULOJNfR+c9rL
zQIDAQABo2YwZDAOBgNVHQ8BAf8EBAMCAQYwEgYDVR0TAQH/BAgwBgEB/wIBADAd
BgNVHQ4EFgQUlQjjHp0tZE5JPqfW9D417lK7luMwHwYDVR0jBBgwFoAUWOFp83h3
JhJ7idlzSlBBpYZP8gEwDQYJKoZIhvcNAQELBQADggIBAH2ieAdrJP6d73OAh6++
AA4cwmjEyDLN6ox4DTWkZO/S1y5QLrqXx+7b49wm1iCCOSG1f6DfUo9K1MCLfniT
jVLEMWOldAnUcjXJHATz+gQJT+lJYvgHIEFVpRl4etK8cqs8MjZ0/EQvM+8dCa4p
NBj2tJ3dVleXy7XVMnk3NWSuuYq2Iqym0fyD1NHvZhyeaLIfCazmFpENgaomHbiy
ZG2VZkXtcBGhxbM90Z1tpXzebxSjpMuGbNKrcpqhpDVZ2ZbCALtpeRoJAX7b525P
C5QnWwpkkAC1Ws8gZZhU+5OGIvIGXVxM4mL2Jbm6EUtzo6QgX8dCaUxdD99zi/AA
yGbpo5Gaiw5XvKQJh5WXnKQR/7mYGWoLCEgwwnM7qG1eycrOYeZQbXktoRjL4o/8
Ft7sHCE4tMWmY6ZJOeR0+witxuspcC9QB5qU9rEq7f+5pKMg5XfW6l3rSUNbOyMl
E16vPSJtGzmpVcRjOToBzbBQvXFSDXVt8rjOhhARpS4WRzXfRf09k+qbCqZ0g+r6
0h2jjSl+EHECFklmxyIL2vlZ2WyBmZLb1hB/S2I/7GK9o1A0E6jOMD5JuKgVvSjU
3DWw74EdnNd+xUBlIWkArxIxlJn1BG6mbbVbVOntMnxy6t5lChtMZNukSy/sysMl
sXLcbQkw6vX0cnjihzlzSQmo
-----END CERTIFICATE-----
