Certificate:
    Data:
        Version: 3 (0x2)
        Serial Number:
            1e:ea:d9:5b:55:0e:96:56:33:23:c3:17:5b:cb:c2:b0:84:6f:01:bf
        Signature Algorithm: sha256WithRSAEncryption
        Issuer: DC=edu, DC=ucsd, DC=e4e, O=UC San Diego, OU=Engineers for Exploration, CN=UCSD Engineers for Exploration
        Validity
            Not Before: Mar 26 02:06:34 2025 GMT
            Not After : Mar 26 02:06:34 2035 GMT
        Subject: DC=edu, DC=ucsd, DC=e4e, O=UC San Diego, OU=Engineers for Exploration, CN=UCSD Engineers for Exploration
        Subject Public Key Info:
            Public Key Algorithm: rsaEncryption
                Public-Key: (2048 bit)
                Modulus:
                    00:a4:a2:e4:03:7f:e9:b8:48:20:14:4b:90:81:85:
                    ce:a5:b0:19:6c:ea:42:6d:ff:a7:02:25:16:e6:4d:
                    9a:94:95:8b:cf:83:fd:fe:f4:47:e5:04:bf:d2:22:
                    aa:d1:c5:8d:e8:c9:ad:22:13:e5:7c:2f:0b:6e:50:
                    ce:78:57:57:b7:78:2f:00:74:c2:bf:c4:34:03:22:
                    3a:0c:bf:5c:3c:ba:18:f8:df:92:1c:5a:09:b7:24:
                    e3:06:7c:19:59:c8:bb:85:db:9a:28:fc:a9:2b:7f:
                    95:9d:9d:96:45:c7:cf:09:f5:22:84:65:78:8f:db:
                    d3:e6:5b:ed:14:80:b7:30:04:f7:f2:47:39:63:39:
                    2c:13:02:9e:eb:60:07:55:20:86:15:89:a9:35:34:
                    8d:20:71:e2:af:17:e9:ec:0e:54:0a:14:7b:05:2e:
                    92:ab:53:49:4f:49:c5:31:a9:11:f5:20:c6:fd:4b:
                    ce:18:15:0a:be:38:c0:cc:70:d8:58:ff:44:95:3d:
                    13:11:96:2a:c4:26:78:e1:e2:56:04:9f:a0:bf:0d:
                    03:e7:ee:84:51:b1:f2:ba:db:77:38:48:57:08:bb:
                    93:56:74:a1:9c:1c:ee:bd:9d:64:a5:7d:a9:3f:83:
                    8a:36:cc:7e:27:64:bf:7d:bd:4f:f9:8c:0f:6d:49:
                    6f:b3
                Exponent: 65537 (0x10001)
        X509v3 extensions:
            X509v3 Key Usage: critical
                Certificate Sign, CRL Sign
            X509v3 Basic Constraints: critical
                CA:TRUE, pathlen:0
            X509v3 Subject Key Identifier: 
                82:AE:E2:79:53:B9:00:2E:D5:87:A5:58:9C:AA:6E:40:17:D8:02:AC
            X509v3 Authority Key Identifier: 
                58:39:15:21:9C:16:30:5A:BA:2A:B7:29:B8:8D:41:93:92:E6:50:E1
    Signature Algorithm: sha256WithRSAEncryption
    Signature Value:
        29:13:70:91:21:d0:4f:ed:f4:0a:73:e9:b5:7d:c9:75:91:cf:
        c5:ca:29:91:f5:2d:21:aa:89:8e:7e:fa:61:f5:7d:81:87:a7:
        35:be:63:b2:0e:d8:d9:9e:07:77:6c:3e:14:ee:d8:c1:59:c2:
        96:88:2b:7f:b0:f9:e3:49:0b:cb:9f:b6:ce:6d:33:eb:31:48:
        c1:16:58:f5:2b:84:da:69:7c:b3:e6:ce:12:57:a1:c5:04:f9:
        c8:92:5b:73:cd:85:e5:68:0d:ce:2c:f0:ee:83:c2:c2:34:c9:
        b8:3b:76:fd:2d:86:08:4c:b3:ed:62:1b:2f:15:e3:10:b2:12:
        75:42:57:be:02:b8:2d:3c:b7:91:82:78:4c:f6:a8:cc:e9:d3:
        6f:98:32:8f:42:24:3b:f1:b8:e3:c3:95:82:2e:6e:b7:e6:6d:
        76:c8:07:78:e6:14:89:17:18:23:af:f3:ba:4b:98:82:2f:f5:
        76:df:57:93:68:6f:c9:14:f7:bd:42:df:79:09:fc:3f:82:13:
        c9:80:b6:a3:98:18:5d:4a:c1:e0:60:2e:93:4e:c6:e9:10:5d:
        c6:a3:eb:c0:90:45:a8:e7:df:a1:70:37:f0:85:4b:45:af:f7:
        86:3f:7f:d9:b1:b1:94:60:26:f9:c0:d1:3d:13:62:cb:5a:ca:
        45:7c:1c:c4:0a:58:ba:d9:d4:01:b6:21:dc:82:20:95:f0:52:
        62:d4:59:08:76:3c:be:70:54:ba:09:c3:5e:84:d3:e0:9e:6b:
        af:29:7c:7c:33:c5:02:3a:a2:53:b9:24:5f:05:02:3d:3a:05:
        2d:31:77:95:0d:2b:21:95:a6:5a:44:7b:3c:d3:b9:8b:47:fa:
        17:fa:c7:c7:ab:2e:28:7b:bb:39:ac:d6:9b:20:cd:27:15:c8:
        59:1b:da:f1:6e:a6:7f:54:9f:29:52:4e:81:a7:fc:da:7d:2c:
        1f:02:e0:2f:f4:3f:a0:67:67:09:bc:f7:62:df:fd:68:64:42:
        fa:e4:ac:53:cb:82:fc:ff:f6:4f:3f:c9:5c:7b:66:0e:ba:fa:
        f6:ca:b2:95:3d:11:6c:ed:e4:03:75:47:bd:c4:57:be:c6:56:
        a5:17:13:42:fc:f3:e0:54:cd:32:6b:59:96:46:3b:26:3d:43:
        e4:81:c8:2c:b1:c0:bf:22:a1:fe:3b:73:3e:f0:89:5d:f1:ad:
        c2:6f:31:eb:54:56:0c:c4:71:a5:ce:b3:7b:85:19:cd:0d:55:
        02:51:ac:8f:58:14:b2:d4:c5:82:14:7f:3e:9e:04:cb:4e:76:
        da:0a:c0:33:6d:9e:29:40:2a:e6:1e:73:09:ae:c0:c4:bb:9d:
        33:ca:6a:46:3e:7f:ad:4e
-----BEGIN CERTIFICATE-----
MIIFPjCCAyagAwIBAgIUHurZW1UOllYzI8MXW8vCsIRvAb8wDQYJKoZIhvcNAQEL
BQAwgaQxEzARBgoJkiaJk/IsZAEZFgNlZHUxFDASBgoJkiaJk/IsZAEZFgR1Y3Nk
MRMwEQYKCZImiZPyLGQBGRYDZTRlMRUwEwYDVQQKDAxVQyBTYW4gRGllZ28xIjAg
BgNVBAsMGUVuZ2luZWVycyBmb3IgRXhwbG9yYXRpb24xJzAlBgNVBAMMHlVDU0Qg
RW5naW5lZXJzIGZvciBFeHBsb3JhdGlvbjAeFw0yNTAzMjYwMjA2MzRaFw0zNTAz
MjYwMjA2MzRaMIGkMRMwEQYKCZImiZPyLGQBGRYDZWR1MRQwEgYKCZImiZPyLGQB
GRYEdWNzZDETMBEGCgmSJomT8ixkARkWA2U0ZTEVMBMGA1UECgwMVUMgU2FuIERp
ZWdvMSIwIAYDVQQLDBlFbmdpbmVlcnMgZm9yIEV4cGxvcmF0aW9uMScwJQYDVQQD
DB5VQ1NEIEVuZ2luZWVycyBmb3IgRXhwbG9yYXRpb24wggEiMA0GCSqGSIb3DQEB
AQUAA4IBDwAwggEKAoIBAQCkouQDf+m4SCAUS5CBhc6lsBls6kJt/6cCJRbmTZqU
lYvPg/3+9EflBL/SIqrRxY3oya0iE+V8LwtuUM54V1e3eC8AdMK/xDQDIjoMv1w8
uhj435IcWgm3JOMGfBlZyLuF25oo/Kkrf5WdnZZFx88J9SKEZXiP29PmW+0UgLcw
BPfyRzljOSwTAp7rYAdVIIYViak1NI0gceKvF+nsDlQKFHsFLpKrU0lPScUxqRH1
IMb9S84YFQq+OMDMcNhY/0SVPRMRlirEJnjh4lYEn6C/DQPn7oRRsfK623c4SFcI
u5NWdKGcHO69nWSlfak/g4o2zH4nZL99vU/5jA9tSW+zAgMBAAGjZjBkMA4GA1Ud
DwEB/wQEAwIBBjASBgNVHRMBAf8ECDAGAQH/AgEAMB0GA1UdDgQWBBSCruJ5U7kA
LtWHpVicqm5AF9gCrDAfBgNVHSMEGDAWgBRYORUhnBYwWroqtym4jUGTkuZQ4TAN
BgkqhkiG9w0BAQsFAAOCAgEAKRNwkSHQT+30CnPptX3JdZHPxcopkfUtIaqJjn76
YfV9gYenNb5jsg7Y2Z4Hd2w+FO7YwVnClogrf7D540kLy5+2zm0z6zFIwRZY9SuE
2ml8s+bOElehxQT5yJJbc82F5WgNzizw7oPCwjTJuDt2/S2GCEyz7WIbLxXjELIS
dUJXvgK4LTy3kYJ4TPaozOnTb5gyj0IkO/G448OVgi5ut+ZtdsgHeOYUiRcYI6/z
ukuYgi/1dt9Xk2hvyRT3vULfeQn8P4ITyYC2o5gYXUrB4GAuk07G6RBdxqPrwJBF
qOffoXA38IVLRa/3hj9/2bGxlGAm+cDRPRNiy1rKRXwcxApYutnUAbYh3IIglfBS
YtRZCHY8vnBUugnDXoTT4J5rryl8fDPFAjqiU7kkXwUCPToFLTF3lQ0rIZWmWkR7
PNO5i0f6F/rHx6suKHu7OazWmyDNJxXIWRva8W6mf1SfKVJOgaf82n0sHwLgL/Q/
oGdnCbz3Yt/9aGRC+uSsU8uC/P/2Tz/JXHtmDrr69sqylT0RbO3kA3VHvcRXvsZW
pRcTQvzz4FTNMmtZlkY7Jj1D5IHILLHAvyKh/jtzPvCJXfGtwm8x61RWDMRxpc6z
e4UZzQ1VAlGsj1gUstTFghR/Pp4Ey0522grAM22eKUAq5h5zCa7AxLudM8pqRj5/
rU4=
-----END CERTIFICATE-----
