Certificate:
    Data:
        Version: 3 (0x2)
        Serial Number:
            2a:ca:ac:ec:6d:1a:5d:56:97:34:43:c2:57:cb:80:e7:76:32:43:c2
        Signature Algorithm: sha256WithRSAEncryption
        Issuer: DC=edu, DC=ucsd, DC=e4e, O=UC San Diego, OU=Engineers for Exploration, CN=UCSD Engineers for Exploration
        Validity
            Not Before: Jul 12 18:05:54 2024 GMT
            Not After : Jul 12 18:05:54 2044 GMT
        Subject: DC=edu, DC=ucsd, DC=e4e, O=UC San Diego, OU=Engineers for Exploration, CN=UCSD Engineers for Exploration
        Subject Public Key Info:
            Public Key Algorithm: rsaEncryption
                RSA Public-Key: (4096 bit)
                Modulus:
                    00:c1:20:17:6b:d3:af:f7:e5:c8:34:f2:d7:f9:58:
                    ef:be:3c:dd:7a:21:7c:d0:a1:45:f9:9d:95:d4:f7:
                    be:53:cc:53:56:a3:1f:e8:5c:5a:e2:a6:a5:6d:37:
                    af:14:b2:b9:40:16:8f:8a:87:a6:16:f4:cd:6a:08:
                    47:6d:26:2e:47:25:ff:70:0a:d4:d4:25:a7:35:d3:
                    a1:07:a2:32:d7:89:11:71:55:06:30:67:45:2f:88:
                    1a:a3:d3:1d:e9:7b:82:c5:ca:cd:e8:02:9e:d4:94:
                    94:c0:8b:96:47:09:99:b7:4b:1a:d6:a5:c0:9b:b6:
                    fa:da:a9:5f:e9:3d:47:ad:3e:5b:41:7a:84:ad:ce:
                    a1:af:66:bc:56:19:b6:26:9c:76:0c:18:9b:ca:01:
                    22:cb:3c:b0:93:9c:b8:24:13:88:41:1e:5b:2f:db:
                    db:59:d8:aa:3c:d5:8e:46:4b:97:dc:fe:ab:be:38:
                    09:3b:89:aa:d8:a8:99:16:3c:95:f2:56:41:cb:70:
                    1c:d8:a1:ee:2c:ff:00:3a:ab:18:2a:18:44:cf:44:
                    d6:de:d9:f1:b7:9c:9e:2c:24:bd:b6:89:0f:3c:69:
                    5e:c4:1e:b6:8e:65:7c:73:d6:ba:0b:27:01:48:e5:
                    0e:c5:05:03:b6:b1:a8:3f:77:6b:f5:df:54:f1:e3:
                    e4:3f:0a:0b:a1:e9:aa:5a:e3:42:8b:ee:b6:d2:dd:
                    b7:ca:2e:25:53:8c:cd:8b:c9:3c:82:3d:16:1b:c8:
                    89:c8:21:09:d8:40:0d:b9:49:0d:93:7c:a6:22:55:
                    12:eb:fa:56:21:8a:9e:cc:e3:66:7d:6a:1e:7a:97:
                    e7:93:b1:a9:4c:5c:9e:1f:3b:57:fa:06:29:21:0d:
                    b9:c9:88:69:c4:8e:f4:7b:ab:47:9c:6b:59:40:8b:
                    14:28:d8:cd:60:37:92:eb:4a:b8:74:2e:13:97:14:
                    da:d3:16:7b:34:61:30:ea:c3:3f:13:0d:ef:b1:89:
                    de:05:63:e5:bf:5b:b7:dc:97:a8:3c:f3:90:97:fc:
                    32:5a:54:13:6c:95:89:1f:71:de:32:cd:12:c1:54:
                    c4:b7:5e:1f:c6:21:63:a6:d9:13:28:73:64:f8:3a:
                    c0:b6:c2:2c:d5:fd:0e:6a:b8:de:63:77:83:80:97:
                    10:91:85:99:9c:23:c3:c4:64:aa:d3:3a:37:a4:c2:
                    ed:34:5d:d1:2f:c4:c4:d1:2b:59:c9:8d:c8:d2:50:
                    2f:11:86:f2:3e:08:bc:14:60:9a:5c:80:3a:e6:a7:
                    20:fd:63:05:6c:60:36:3a:36:28:85:f3:c4:77:88:
                    a5:de:40:51:46:22:15:52:ef:55:b7:99:32:90:9a:
                    14:26:8d
                Exponent: 65537 (0x10001)
        X509v3 extensions:
            X509v3 Key Usage: critical
                Certificate Sign, CRL Sign
            X509v3 Basic Constraints: critical
                CA:TRUE
            X509v3 Subject Key Identifier: 
                58:E1:69:F3:78:77:26:12:7B:89:D9:73:4A:50:41:A5:86:4F:F2:01
            X509v3 Authority Key Identifier: 
                keyid:58:E1:69:F3:78:77:26:12:7B:89:D9:73:4A:50:41:A5:86:4F:F2:01

    Signature Algorithm: sha256WithRSAEncryption
         4e:ea:a4:fd:2b:c0:19:05:5c:11:3f:4d:18:11:05:38:b4:fa:
         30:3a:4a:f3:d8:ee:46:6d:41:e2:d5:a2:fa:94:23:e5:69:ee:
         83:39:9f:ba:38:c7:f2:09:72:6b:0c:8a:b3:b2:14:98:8f:e5:
         46:c2:76:2d:c3:18:14:97:9c:4b:d4:23:62:f5:8b:b5:ad:f8:
         00:15:28:5a:05:b2:85:72:2e:62:66:d5:96:f2:b8:cd:0f:4e:
         f5:ae:fa:b5:bf:48:e7:aa:73:3b:b3:55:e5:1a:cc:21:13:69:
         0e:94:0d:c9:35:40:dd:80:ee:eb:ca:8c:9f:8c:bd:51:48:f0:
         34:4c:02:59:83:82:a5:8f:c4:99:59:75:fe:a7:51:e2:02:9f:
         c8:b5:3e:91:95:b6:a1:80:66:ca:44:86:c2:64:30:0a:70:26:
         bc:2c:a4:16:67:23:d8:04:56:cd:28:12:01:bd:91:c9:80:f6:
         ff:94:59:b6:4f:c3:e0:30:3d:d1:09:e3:ea:2b:df:3c:79:4c:
         ac:8b:aa:21:97:e4:00:82:7d:39:c3:21:f6:55:6c:cb:d8:ee:
         96:7e:3f:80:c4:91:5e:3d:05:b1:a6:a9:f7:63:ba:97:a8:f4:
         33:43:f7:f4:5a:eb:61:95:78:84:7e:4b:4d:69:48:4f:56:4b:
         9c:e8:b1:0a:31:4e:4d:ff:72:20:54:77:37:1b:6d:ff:cc:dc:
         cb:d1:4b:3d:54:ad:50:90:1b:f1:d9:c8:37:e3:fa:25:9c:25:
         46:4d:27:58:52:a3:14:35:40:76:98:c8:38:27:90:3e:30:82:
         60:b9:37:43:49:ef:c0:69:40:9d:7c:74:62:45:3b:8c:8f:70:
         0d:f6:50:dc:47:96:eb:4c:5c:6c:30:bb:6a:1f:55:2c:51:52:
         74:49:91:15:6c:28:d5:d5:d2:59:b9:58:9d:07:3c:5c:3b:66:
         0e:31:47:fd:f7:55:50:01:04:45:96:ab:9d:60:81:07:d4:d3:
         52:d2:1d:fb:2a:56:de:ff:a2:cb:b0:50:3a:ad:8e:98:e2:ae:
         22:61:ba:e4:bc:1a:4d:76:4a:87:1c:dd:19:b4:ca:8c:0d:b0:
         11:8d:94:28:79:28:91:c4:f8:2b:5b:7e:8c:48:73:da:92:35:
         8e:8d:0f:0b:ea:0f:0e:d3:9d:65:99:ed:5d:1b:06:5b:6e:2a:
         ad:63:49:d7:a7:a1:e2:d3:68:d9:15:d8:d9:9c:0f:5d:75:b6:
         87:c4:c4:fe:fe:a8:dd:58:7b:94:17:1b:fe:96:6e:7a:67:30:
         99:80:8f:f0:d2:2f:3d:45:63:b3:d7:aa:c9:f8:d0:aa:cf:7b:
         44:46:f6:6c:f3:0e:02:f1
-----BEGIN CERTIFICATE-----
MIIGOzCCBCOgAwIBAgIUKsqs7G0aXVaXNEPCV8uA53YyQ8IwDQYJKoZIhvcNAQEL
BQAwgaQxEzARBgoJkiaJk/IsZAEZFgNlZHUxFDASBgoJkiaJk/IsZAEZFgR1Y3Nk
MRMwEQYKCZImiZPyLGQBGRYDZTRlMRUwEwYDVQQKDAxVQyBTYW4gRGllZ28xIjAg
BgNVBAsMGUVuZ2luZWVycyBmb3IgRXhwbG9yYXRpb24xJzAlBgNVBAMMHlVDU0Qg
RW5naW5lZXJzIGZvciBFeHBsb3JhdGlvbjAeFw0yNDA3MTIxODA1NTRaFw00NDA3
MTIxODA1NTRaMIGkMRMwEQYKCZImiZPyLGQBGRYDZWR1MRQwEgYKCZImiZPyLGQB
GRYEdWNzZDETMBEGCgmSJomT8ixkARkWA2U0ZTEVMBMGA1UECgwMVUMgU2FuIERp
ZWdvMSIwIAYDVQQLDBlFbmdpbmVlcnMgZm9yIEV4cGxvcmF0aW9uMScwJQYDVQQD
DB5VQ1NEIEVuZ2luZWVycyBmb3IgRXhwbG9yYXRpb24wggIiMA0GCSqGSIb3DQEB
AQUAA4ICDwAwggIKAoICAQDBIBdr06/35cg08tf5WO++PN16IXzQoUX5nZXU975T
zFNWox/oXFripqVtN68UsrlAFo+Kh6YW9M1qCEdtJi5HJf9wCtTUJac106EHojLX
iRFxVQYwZ0UviBqj0x3pe4LFys3oAp7UlJTAi5ZHCZm3SxrWpcCbtvraqV/pPUet
PltBeoStzqGvZrxWGbYmnHYMGJvKASLLPLCTnLgkE4hBHlsv29tZ2Ko81Y5GS5fc
/qu+OAk7iarYqJkWPJXyVkHLcBzYoe4s/wA6qxgqGETPRNbe2fG3nJ4sJL22iQ88
aV7EHraOZXxz1roLJwFI5Q7FBQO2sag/d2v131Tx4+Q/Cguh6apa40KL7rbS3bfK
LiVTjM2LyTyCPRYbyInIIQnYQA25SQ2TfKYiVRLr+lYhip7M42Z9ah56l+eTsalM
XJ4fO1f6BikhDbnJiGnEjvR7q0eca1lAixQo2M1gN5LrSrh0LhOXFNrTFns0YTDq
wz8TDe+xid4FY+W/W7fcl6g885CX/DJaVBNslYkfcd4yzRLBVMS3Xh/GIWOm2RMo
c2T4OsC2wizV/Q5quN5jd4OAlxCRhZmcI8PEZKrTOjekwu00XdEvxMTRK1nJjcjS
UC8RhvI+CLwUYJpcgDrmpyD9YwVsYDY6NiiF88R3iKXeQFFGIhVS71W3mTKQmhQm
jQIDAQABo2MwYTAOBgNVHQ8BAf8EBAMCAQYwDwYDVR0TAQH/BAUwAwEB/zAdBgNV
HQ4EFgQUWOFp83h3JhJ7idlzSlBBpYZP8gEwHwYDVR0jBBgwFoAUWOFp83h3JhJ7
idlzSlBBpYZP8gEwDQYJKoZIhvcNAQELBQADggIBAE7qpP0rwBkFXBE/TRgRBTi0
+jA6SvPY7kZtQeLVovqUI+Vp7oM5n7o4x/IJcmsMirOyFJiP5UbCdi3DGBSXnEvU
I2L1i7Wt+AAVKFoFsoVyLmJm1ZbyuM0PTvWu+rW/SOeqczuzVeUazCETaQ6UDck1
QN2A7uvKjJ+MvVFI8DRMAlmDgqWPxJlZdf6nUeICn8i1PpGVtqGAZspEhsJkMApw
JrwspBZnI9gEVs0oEgG9kcmA9v+UWbZPw+AwPdEJ4+or3zx5TKyLqiGX5ACCfTnD
IfZVbMvY7pZ+P4DEkV49BbGmqfdjupeo9DND9/Ra62GVeIR+S01pSE9WS5zosQox
Tk3/ciBUdzcbbf/M3MvRSz1UrVCQG/HZyDfj+iWcJUZNJ1hSoxQ1QHaYyDgnkD4w
gmC5N0NJ78BpQJ18dGJFO4yPcA32UNxHlutMXGwwu2ofVSxRUnRJkRVsKNXV0lm5
WJ0HPFw7Zg4xR/33VVABBEWWq51ggQfU01LSHfsqVt7/osuwUDqtjpjiriJhuuS8
Gk12Socc3Rm0yowNsBGNlCh5KJHE+CtbfoxIc9qSNY6NDwvqDw7TnWWZ7V0bBltu
Kq1jSdenoeLTaNkV2NmcD111tofExP7+qN1Ye5QXG/6WbnpnMJmAj/DSLz1FY7PX
qsn40KrPe0RG9mzzDgLx
-----END CERTIFICATE-----
