Certificate:
    Data:
        Version: 3 (0x2)
        Serial Number:
            2e:f5:c6:8b:9a:9a:15:54:fa:12:1d:ae:9e:51:22:23:06:4f:3a:95
        Signature Algorithm: sha256WithRSAEncryption
        Issuer: DC=edu, DC=ucsd, DC=e4e, O=UCSD Engineers for Exploration, CN=Engineers for Exploration CA
        Validity
            Not Before: Jul  5 00:19:34 2024 GMT
            Not After : Jul  5 00:19:34 2034 GMT
        Subject: DC=edu, DC=ucsd, DC=e4e, O=UCSD Engineers for Exploration, CN=Engineers for Exploration CA
        Subject Public Key Info:
            Public Key Algorithm: rsaEncryption
                RSA Public-Key: (2048 bit)
                Modulus:
                    00:b6:fb:cd:7f:57:28:89:b1:ea:1e:63:ed:05:6f:
                    6b:fe:de:cd:e8:58:f1:66:95:58:b1:c3:8a:35:13:
                    e1:db:c6:b7:1b:6d:37:4a:ca:cf:e9:2e:de:89:5c:
                    b1:2a:14:d6:17:29:da:0f:62:4d:f3:9b:9e:6e:5f:
                    36:f5:54:41:fe:04:17:e0:1b:3c:47:a7:e1:64:f1:
                    84:45:4e:d9:57:7c:aa:1f:7e:de:ef:aa:3f:21:c4:
                    71:45:7a:33:4b:eb:52:45:97:6e:96:f2:40:8a:56:
                    ed:43:fe:c9:26:5f:b4:c9:4e:32:b2:b0:df:f6:10:
                    c9:aa:1f:09:36:07:bd:00:3e:4f:8b:3d:5c:c5:25:
                    2e:34:79:29:d5:04:b1:a0:ed:9c:a8:c7:06:08:aa:
                    24:bc:a7:85:a0:ab:64:84:e6:29:e0:e2:71:57:60:
                    5d:83:b2:63:61:07:e2:bc:31:07:a1:00:ed:11:45:
                    e0:9c:b6:c9:cb:99:4a:23:b4:ce:ac:13:2b:68:6e:
                    75:e0:6a:48:c5:d1:43:3f:ca:dc:55:2b:d3:cc:5c:
                    c4:e2:ce:1d:dc:c1:fb:c6:c6:c0:fd:58:0e:18:49:
                    1c:7e:ba:bb:17:57:14:b8:c9:5e:ce:d6:42:81:da:
                    cb:d3:30:44:c9:e2:36:f9:d0:23:40:2a:2e:6e:c8:
                    f4:c9
                Exponent: 65537 (0x10001)
        X509v3 extensions:
            X509v3 Key Usage: critical
                Certificate Sign, CRL Sign
            X509v3 Basic Constraints: critical
                CA:TRUE, pathlen:0
            X509v3 Subject Key Identifier: 
                8D:A2:E1:2F:FB:61:89:80:C7:3C:43:C0:1B:94:BD:BF:1A:4B:E6:6B
            X509v3 Authority Key Identifier: 
                keyid:65:CE:90:6E:70:0D:94:E1:78:83:1C:90:F7:57:91:BE:CA:23:51:23

    Signature Algorithm: sha256WithRSAEncryption
         67:a0:c8:eb:ab:df:05:a3:00:ba:db:00:95:12:89:b3:91:d1:
         b8:05:92:40:ba:da:ce:ec:77:92:6f:5b:fc:d6:a6:d2:fe:37:
         35:71:01:90:47:1f:5d:7e:2b:98:93:4b:aa:2a:97:ed:b1:0e:
         62:4b:94:33:22:4a:c9:84:c8:c5:25:bb:1c:63:a2:2a:b6:2d:
         1e:5a:8c:9b:e5:73:27:bf:8f:5a:2a:1a:43:d2:df:b6:ab:de:
         ac:e3:d2:60:65:56:82:b4:40:35:60:f9:7a:5c:17:7f:eb:33:
         46:3c:31:c2:58:eb:17:e0:e0:60:30:4a:06:cf:0d:b8:68:94:
         74:7b:82:f2:ec:05:62:f3:af:a2:af:00:0b:0d:62:30:2c:9a:
         66:35:dd:3d:24:02:2c:31:4b:b4:f0:84:1c:fe:f7:3c:cd:b9:
         d9:a7:2c:7e:0d:6f:66:2f:f3:2f:c7:32:55:f4:61:84:7a:a5:
         6b:6e:5d:d8:d5:6c:3e:26:7e:62:de:bb:44:d5:d7:25:10:dc:
         85:76:47:20:4d:94:e0:25:c9:62:49:59:7b:0c:89:e0:d9:ad:
         01:ba:8f:db:19:43:2d:5e:9d:4c:75:a7:97:0e:34:3c:ff:c0:
         c1:b2:09:df:07:58:4c:a0:7d:d7:67:58:c7:f3:81:52:17:18:
         02:c3:3a:44
-----BEGIN CERTIFICATE-----
MIIEFjCCAv6gAwIBAgIULvXGi5qaFVT6Eh2unlEiIwZPOpUwDQYJKoZIhvcNAQEL
BQAwgZAxEzARBgoJkiaJk/IsZAEZFgNlZHUxFDASBgoJkiaJk/IsZAEZFgR1Y3Nk
MRMwEQYKCZImiZPyLGQBGRYDZTRlMScwJQYDVQQKDB5VQ1NEIEVuZ2luZWVycyBm
b3IgRXhwbG9yYXRpb24xJTAjBgNVBAMMHEVuZ2luZWVycyBmb3IgRXhwbG9yYXRp
b24gQ0EwHhcNMjQwNzA1MDAxOTM0WhcNMzQwNzA1MDAxOTM0WjCBkDETMBEGCgmS
JomT8ixkARkWA2VkdTEUMBIGCgmSJomT8ixkARkWBHVjc2QxEzARBgoJkiaJk/Is
ZAEZFgNlNGUxJzAlBgNVBAoMHlVDU0QgRW5naW5lZXJzIGZvciBFeHBsb3JhdGlv
bjElMCMGA1UEAwwcRW5naW5lZXJzIGZvciBFeHBsb3JhdGlvbiBDQTCCASIwDQYJ
KoZIhvcNAQEBBQADggEPADCCAQoCggEBALb7zX9XKImx6h5j7QVva/7ezehY8WaV
WLHDijUT4dvGtxttN0rKz+ku3olcsSoU1hcp2g9iTfObnm5fNvVUQf4EF+AbPEen
4WTxhEVO2Vd8qh9+3u+qPyHEcUV6M0vrUkWXbpbyQIpW7UP+ySZftMlOMrKw3/YQ
yaofCTYHvQA+T4s9XMUlLjR5KdUEsaDtnKjHBgiqJLynhaCrZITmKeDicVdgXYOy
Y2EH4rwxB6EA7RFF4Jy2ycuZSiO0zqwTK2hudeBqSMXRQz/K3FUr08xcxOLOHdzB
+8bGwP1YDhhJHH66uxdXFLjJXs7WQoHay9MwRMniNvnQI0AqLm7I9MkCAwEAAaNm
MGQwDgYDVR0PAQH/BAQDAgEGMBIGA1UdEwEB/wQIMAYBAf8CAQAwHQYDVR0OBBYE
FI2i4S/7YYmAxzxDwBuUvb8aS+ZrMB8GA1UdIwQYMBaAFGXOkG5wDZTheIMckPdX
kb7KI1EjMA0GCSqGSIb3DQEBCwUAA4IBAQBnoMjrq98FowC62wCVEomzkdG4BZJA
utrO7HeSb1v81qbS/jc1cQGQRx9dfiuYk0uqKpftsQ5iS5QzIkrJhMjFJbscY6Iq
ti0eWoyb5XMnv49aKhpD0t+2q96s49JgZVaCtEA1YPl6XBd/6zNGPDHCWOsX4OBg
MEoGzw24aJR0e4Ly7AVi86+irwALDWIwLJpmNd09JAIsMUu08IQc/vc8zbnZpyx+
DW9mL/MvxzJV9GGEeqVrbl3Y1Ww+Jn5i3rtE1dclENyFdkcgTZTgJcliSVl7DIng
2a0Buo/bGUMtXp1MdaeXDjQ8/8DBsgnfB1hMoH3XZ1jH84FSFxgCwzpE
-----END CERTIFICATE-----
