Certificate:
    Data:
        Version: 3 (0x2)
        Serial Number:
            33:cf:d8:6f:97:70:07:dd:14:5f:b1:3c:60:2e:bc:50:a9:d8:5f:b0
        Signature Algorithm: sha256WithRSAEncryption
        Issuer: DC=edu, DC=ucsd, DC=e4e, O=UC San Diego, OU=Engineers for Exploration, CN=UCSD Engineers for Exploration
        Validity
            Not Before: Mar 26 02:44:55 2025 GMT
            Not After : Mar 26 02:44:55 2035 GMT
        Subject: DC=edu, DC=ucsd, DC=e4e, O=UC San Diego, OU=Engineers for Exploration, CN=UCSD Engineers for Exploration
        Subject Public Key Info:
            Public Key Algorithm: rsaEncryption
                Public-Key: (2048 bit)
                Modulus:
                    00:c4:9e:19:1b:97:30:d0:58:14:a0:f9:0c:69:dd:
                    21:4f:61:78:5e:32:1b:d0:a0:0a:7b:05:fa:36:e5:
                    4b:74:99:9e:96:be:ad:13:6e:e6:2f:eb:9d:2a:f4:
                    6e:25:f6:57:3b:86:84:73:33:cc:e8:e1:3c:84:86:
                    9e:8f:7a:e3:6c:17:ac:e1:bf:14:2a:1e:b0:e4:8b:
                    d2:02:31:f4:4b:26:4e:ed:d9:be:90:73:6b:38:43:
                    df:47:ad:96:aa:26:a9:c4:64:47:d5:71:30:f7:85:
                    d5:50:8c:f5:d1:49:fe:22:f8:8b:41:66:88:4c:b2:
                    22:21:01:e1:dc:b0:a3:03:4a:c7:d8:40:2d:89:a9:
                    f6:96:ac:5e:27:cc:ad:42:3d:2b:51:96:0d:61:53:
                    e3:57:af:63:8c:17:6d:93:d2:f2:49:52:6a:96:68:
                    a0:a4:21:79:38:05:bf:f9:bd:b5:cb:08:4d:d9:49:
                    38:37:67:b3:56:0b:58:94:d6:cd:3a:81:08:04:83:
                    d8:e7:66:a1:d4:0a:f1:fa:e8:26:4a:27:6f:04:19:
                    e4:e2:53:4a:e1:1d:bb:03:c0:30:07:71:d0:e3:59:
                    ca:75:ff:fe:41:4a:69:43:3c:d4:d0:6e:da:6a:2f:
                    d2:d1:9a:b0:d2:52:e5:e3:8a:1f:51:09:b7:43:0a:
                    78:81
                Exponent: 65537 (0x10001)
        X509v3 extensions:
            X509v3 Key Usage: critical
                Certificate Sign, CRL Sign
            X509v3 Basic Constraints: critical
                CA:TRUE, pathlen:0
            X509v3 Subject Key Identifier: 
                1B:E7:BF:C7:2E:9E:C0:B7:B5:2A:48:91:12:A0:74:5E:C0:62:56:74
            X509v3 Authority Key Identifier: 
                D6:58:C2:27:08:32:1B:E3:95:9E:2D:8D:BA:C4:4D:9F:6D:6F:CE:0E
    Signature Algorithm: sha256WithRSAEncryption
    Signature Value:
        45:57:21:be:f1:8d:92:ca:ac:e7:a9:31:f7:1f:bf:8e:5e:12:
        af:0c:9b:ae:82:fc:82:c1:50:0f:3c:a6:5b:e8:15:2a:76:8e:
        11:de:66:9e:71:99:cd:03:a8:90:1e:89:b1:2a:fc:9d:7e:9c:
        fc:05:10:0e:25:48:63:64:e1:8e:af:9c:72:e9:08:e3:20:8f:
        1a:53:21:57:b4:41:a6:91:35:ae:f1:45:f3:1a:6c:79:21:97:
        8e:0c:f8:d7:97:8d:5c:48:54:10:60:54:4f:00:f5:0b:9b:82:
        6f:8f:a8:7e:a9:a0:ae:9f:a5:2c:68:41:4f:f7:dd:1e:6f:89:
        76:e0:20:d6:1d:0a:5a:18:11:64:76:69:0c:5e:f0:44:8f:42:
        eb:16:ac:5a:34:98:47:b2:df:22:cf:26:26:ad:45:ae:50:2f:
        e0:29:0b:32:86:05:81:30:54:98:cf:5f:af:f7:a7:3d:cd:dd:
        a2:da:64:ad:e3:39:3f:fa:50:73:00:a4:88:6c:a5:a6:61:b4:
        5a:ec:c1:57:4c:0e:31:85:7a:80:bd:67:ea:8b:17:0c:f3:2a:
        89:ee:f8:b9:fd:b4:a0:78:f8:19:c8:f8:65:e9:cb:df:54:a8:
        c7:56:7c:39:a2:28:f9:ff:43:4c:f2:9a:d2:19:d7:09:38:d8:
        22:21:94:91:53:ff:3b:46:76:2a:e7:de:53:18:ee:98:c6:65:
        19:b6:e5:c9:62:37:e6:6c:bc:b4:1c:e5:ed:88:65:6c:4b:0b:
        89:31:b4:1c:07:82:d5:62:d8:f2:f9:b1:bf:40:9c:ec:42:5b:
        bd:15:c6:46:de:f2:03:3c:04:b3:b0:89:79:66:b0:f5:a6:99:
        07:25:28:55:6a:37:a8:a0:f9:20:16:74:ca:4d:96:8a:a0:f8:
        f3:ca:3f:c6:94:f3:8c:45:f4:da:e2:ab:f4:a2:ee:c1:33:15:
        ff:77:59:5d:01:2e:19:01:11:83:71:a0:8c:3e:1b:32:fa:4c:
        fe:69:c4:f1:79:07:7f:0f:62:2a:1d:1a:99:5a:df:1b:bf:d4:
        6b:b5:0f:37:6d:9e:d4:43:fd:54:5f:11:0d:9c:eb:74:a7:1d:
        85:b5:c3:83:af:d3:56:b6:8b:35:8a:14:40:81:52:b4:61:44:
        42:1d:be:01:23:53:a2:ac:8d:71:b8:7a:3e:8a:28:65:65:9c:
        46:9c:c3:0f:42:fc:7c:c7:cb:47:46:d8:a7:2c:dc:02:7b:9a:
        29:5c:e4:bb:4c:7e:b0:10:30:ae:0b:12:eb:20:02:a0:89:b1:
        ea:ce:48:cb:0c:96:32:ed:d3:14:38:4f:79:9d:0a:18:be:cf:
        07:91:ad:1d:d6:10:ec:a6
-----BEGIN CERTIFICATE-----
MIIFPjCCAyagAwIBAgIUM8/Yb5dwB90UX7E8YC68UKnYX7AwDQYJKoZIhvcNAQEL
BQAwgaQxEzARBgoJkiaJk/IsZAEZFgNlZHUxFDASBgoJkiaJk/IsZAEZFgR1Y3Nk
MRMwEQYKCZImiZPyLGQBGRYDZTRlMRUwEwYDVQQKDAxVQyBTYW4gRGllZ28xIjAg
BgNVBAsMGUVuZ2luZWVycyBmb3IgRXhwbG9yYXRpb24xJzAlBgNVBAMMHlVDU0Qg
RW5naW5lZXJzIGZvciBFeHBsb3JhdGlvbjAeFw0yNTAzMjYwMjQ0NTVaFw0zNTAz
MjYwMjQ0NTVaMIGkMRMwEQYKCZImiZPyLGQBGRYDZWR1MRQwEgYKCZImiZPyLGQB
GRYEdWNzZDETMBEGCgmSJomT8ixkARkWA2U0ZTEVMBMGA1UECgwMVUMgU2FuIERp
ZWdvMSIwIAYDVQQLDBlFbmdpbmVlcnMgZm9yIEV4cGxvcmF0aW9uMScwJQYDVQQD
DB5VQ1NEIEVuZ2luZWVycyBmb3IgRXhwbG9yYXRpb24wggEiMA0GCSqGSIb3DQEB
AQUAA4IBDwAwggEKAoIBAQDEnhkblzDQWBSg+Qxp3SFPYXheMhvQoAp7Bfo25Ut0
mZ6Wvq0TbuYv650q9G4l9lc7hoRzM8zo4TyEhp6PeuNsF6zhvxQqHrDki9ICMfRL
Jk7t2b6Qc2s4Q99HrZaqJqnEZEfVcTD3hdVQjPXRSf4i+ItBZohMsiIhAeHcsKMD
SsfYQC2JqfaWrF4nzK1CPStRlg1hU+NXr2OMF22T0vJJUmqWaKCkIXk4Bb/5vbXL
CE3ZSTg3Z7NWC1iU1s06gQgEg9jnZqHUCvH66CZKJ28EGeTiU0rhHbsDwDAHcdDj
Wcp1//5BSmlDPNTQbtpqL9LRmrDSUuXjih9RCbdDCniBAgMBAAGjZjBkMA4GA1Ud
DwEB/wQEAwIBBjASBgNVHRMBAf8ECDAGAQH/AgEAMB0GA1UdDgQWBBQb57/HLp7A
t7UqSJESoHRewGJWdDAfBgNVHSMEGDAWgBTWWMInCDIb45WeLY26xE2fbW/ODjAN
BgkqhkiG9w0BAQsFAAOCAgEARVchvvGNksqs56kx9x+/jl4SrwybroL8gsFQDzym
W+gVKnaOEd5mnnGZzQOokB6JsSr8nX6c/AUQDiVIY2Thjq+ccukI4yCPGlMhV7RB
ppE1rvFF8xpseSGXjgz415eNXEhUEGBUTwD1C5uCb4+ofqmgrp+lLGhBT/fdHm+J
duAg1h0KWhgRZHZpDF7wRI9C6xasWjSYR7LfIs8mJq1FrlAv4CkLMoYFgTBUmM9f
r/enPc3dotpkreM5P/pQcwCkiGylpmG0WuzBV0wOMYV6gL1n6osXDPMqie74uf20
oHj4Gcj4ZenL31Sox1Z8OaIo+f9DTPKa0hnXCTjYIiGUkVP/O0Z2KufeUxjumMZl
GbblyWI35my8tBzl7YhlbEsLiTG0HAeC1WLY8vmxv0Cc7EJbvRXGRt7yAzwEs7CJ
eWaw9aaZByUoVWo3qKD5IBZ0yk2WiqD488o/xpTzjEX02uKr9KLuwTMV/3dZXQEu
GQERg3GgjD4bMvpM/mnE8XkHfw9iKh0amVrfG7/Ua7UPN22e1EP9VF8RDZzrdKcd
hbXDg6/TVraLNYoUQIFStGFEQh2+ASNToqyNcbh6PoooZWWcRpzDD0L8fMfLR0bY
pyzcAnuaKVzku0x+sBAwrgsS6yACoImx6s5IywyWMu3TFDhPeZ0KGL7PB5GtHdYQ
7KY=
-----END CERTIFICATE-----
