Certificate:
    Data:
        Version: 3 (0x2)
        Serial Number:
            3a:d5:ec:28:da:de:50:b2:c3:4a:12:68:6e:20:e2:21:d0:b6:95:d0
        Signature Algorithm: sha256WithRSAEncryption
        Issuer: DC=edu, DC=ucsd, DC=e4e, O=UC San Diego, OU=Engineers for Exploration, CN=UCSD Engineers for Exploration
        Validity
            Not Before: Mar 26 02:03:15 2025 GMT
            Not After : Mar 26 02:03:15 2045 GMT
        Subject: DC=edu, DC=ucsd, DC=e4e, O=UC San Diego, OU=Engineers for Exploration, CN=UCSD Engineers for Exploration
        Subject Public Key Info:
            Public Key Algorithm: rsaEncryption
                Public-Key: (4096 bit)
                Modulus:
                    00:be:5f:0c:24:e0:dd:86:2b:93:aa:46:37:fb:74:
                    41:8a:4a:9c:bb:f6:55:75:53:2f:e4:1c:1c:b6:db:
                    78:7b:d5:d3:bd:99:ea:15:ca:2c:2b:d9:fc:24:ac:
                    6d:a2:2c:84:77:d2:c2:8b:08:b7:cd:36:c1:92:62:
                    b3:94:f1:b6:a3:65:b2:c3:dc:56:f9:c9:ff:47:af:
                    de:85:bb:ba:34:e7:0b:dd:92:53:92:e0:ac:67:6b:
                    b2:17:11:55:d5:80:fb:d9:85:cc:dc:42:3d:12:29:
                    e7:34:35:17:d2:1a:6f:f1:be:24:11:2f:ff:4a:6c:
                    d7:f0:78:89:9c:ae:f4:2d:a0:8a:6f:19:b0:f7:8b:
                    8c:d4:17:8e:ae:39:31:51:b8:d2:75:23:e7:c3:61:
                    ce:c3:e5:6c:0c:3c:b9:a6:0c:d5:4a:b1:32:7d:8b:
                    2c:59:5b:a2:03:f0:d7:57:67:6d:0b:9f:78:6c:4c:
                    ea:6b:da:ea:f4:2c:e0:9c:25:60:0a:20:81:d1:67:
                    20:94:c4:32:0f:a8:7e:1b:8f:32:54:3f:d5:c9:dc:
                    e6:34:af:05:39:38:65:8f:d5:9a:c5:40:54:27:c2:
                    0f:4c:47:c4:f4:ed:14:b1:93:19:d4:57:b5:05:48:
                    80:ae:76:be:a4:8f:9a:a3:20:4e:0f:cb:07:f2:7f:
                    06:52:41:c4:aa:77:67:b2:2a:ad:2b:e8:16:d0:1d:
                    31:f5:42:eb:51:7d:8a:04:f3:29:9d:ae:ba:f2:14:
                    a2:e8:e2:8b:6c:cf:52:13:b6:ed:f7:2b:02:2e:81:
                    39:81:69:cd:97:c3:68:16:44:3a:a9:80:99:bc:cb:
                    3b:23:34:47:ea:d0:57:3b:86:0e:77:8a:eb:b8:3c:
                    10:0e:30:e2:17:f6:c8:2d:a5:72:46:31:22:a4:b4:
                    10:96:32:f0:c0:36:96:25:20:32:7f:f4:6c:e9:91:
                    ac:25:20:6d:9d:cf:7a:df:a8:97:60:a0:92:9b:9e:
                    ed:d5:70:49:65:ca:f3:a4:7c:16:7a:07:59:42:e3:
                    67:b7:27:a6:b7:d0:55:71:ce:50:a6:90:75:9a:1a:
                    27:9f:bd:2e:45:61:51:31:e9:a0:03:ac:24:d4:fd:
                    7a:7a:cd:bd:70:af:c7:e9:13:18:a2:1a:ce:2f:1c:
                    b1:f3:6f:e4:db:f6:e0:90:f3:62:9d:68:b2:31:a6:
                    e9:51:ce:f5:05:3c:ad:f6:af:3d:4b:ad:40:57:fc:
                    a4:6f:f9:f1:13:4d:2e:b9:eb:70:42:cf:f7:07:85:
                    aa:19:8c:b2:04:7f:36:dc:01:28:82:fa:c7:fc:90:
                    49:f8:df:ca:ec:58:9a:9f:19:0b:4c:f0:d8:a9:27:
                    1d:1c:7f
                Exponent: 65537 (0x10001)
        X509v3 extensions:
            X509v3 Key Usage: critical
                Certificate Sign, CRL Sign
            X509v3 Basic Constraints: critical
                CA:TRUE
            X509v3 Subject Key Identifier: 
                58:39:15:21:9C:16:30:5A:BA:2A:B7:29:B8:8D:41:93:92:E6:50:E1
            X509v3 Authority Key Identifier: 
                58:39:15:21:9C:16:30:5A:BA:2A:B7:29:B8:8D:41:93:92:E6:50:E1
    Signature Algorithm: sha256WithRSAEncryption
    Signature Value:
        85:58:4f:48:f3:29:52:4b:cf:e6:69:45:0c:99:df:11:f3:19:
        7b:fd:c9:f7:47:f1:9f:39:d5:b5:c7:e2:6d:65:77:7e:82:e7:
        3c:08:63:8a:d3:2f:56:d1:41:76:23:82:a9:22:2a:3e:dd:aa:
        86:ad:ab:7c:62:95:40:5c:76:a7:6c:af:7e:dd:2d:cb:83:5b:
        81:20:14:94:a0:de:d7:7a:04:98:45:07:52:2c:7f:b9:85:6e:
        0c:a0:00:d5:fa:cd:89:44:ef:d5:c9:78:57:56:f5:02:58:bb:
        0c:d1:1d:96:a7:fb:c8:98:42:c7:e0:bd:24:31:71:0a:d7:19:
        32:21:28:52:cd:b2:9e:06:17:95:91:90:4c:bc:de:af:8b:ae:
        b6:a3:1c:03:49:b6:3a:35:8d:1b:dd:95:e4:8a:2c:3f:41:e4:
        b1:18:32:84:6c:ab:27:02:3f:5e:00:1f:54:20:5a:2a:22:ad:
        a6:cd:fc:e9:c4:66:77:17:7b:ab:b5:25:26:c4:16:68:0a:78:
        e9:bd:e2:9b:b9:80:65:63:db:9d:85:b4:e2:fb:ec:2a:44:ed:
        0c:7b:56:f9:46:cc:cc:bb:d7:4c:e7:a8:7e:3d:da:1a:b7:90:
        69:db:df:a4:fb:41:a5:47:a6:d3:2a:30:83:82:24:46:b1:5b:
        ad:7b:58:19:79:7a:4f:ef:35:ba:04:8d:81:da:02:3a:34:40:
        d4:70:26:69:ed:27:93:66:cf:2d:07:ff:8a:3b:1d:e5:0d:96:
        e7:b7:17:1f:3d:46:fd:44:19:b2:49:fd:98:2f:1a:78:57:60:
        6a:bf:d8:f5:f3:c4:94:31:0b:e5:fc:2d:80:d4:a2:db:77:e7:
        0c:5b:a9:9d:b0:85:17:74:1f:dc:4c:3e:16:42:0b:2f:43:24:
        b2:c2:99:f1:f1:2f:1f:a4:51:ba:80:09:b3:d7:28:37:5b:8d:
        ab:4b:52:11:07:15:6f:2f:eb:b9:83:08:1b:98:52:24:1c:68:
        d2:5f:b5:9d:8e:44:e1:0d:21:2d:ac:e0:20:7e:0a:00:9f:db:
        b6:ac:42:b2:b9:d6:ed:a4:cc:7a:d3:6c:7f:ba:81:03:04:96:
        7a:3f:ba:0f:ab:ec:32:60:42:2c:6d:12:2d:b1:5d:a0:d0:68:
        94:5b:12:49:96:79:ab:55:f7:0d:07:c5:28:b9:03:bf:a4:4a:
        f7:44:ac:b6:0a:99:80:07:ca:5d:c1:d5:d2:9a:63:3e:38:cc:
        bd:e9:17:fa:71:7a:e1:98:70:fa:82:24:55:1d:86:20:59:1f:
        13:02:4f:f2:4e:e9:79:11:e2:3b:fc:52:d4:78:7b:01:58:df:
        0e:c6:e1:5f:31:32:7c:df
-----BEGIN CERTIFICATE-----
MIIGOzCCBCOgAwIBAgIUOtXsKNreULLDShJobiDiIdC2ldAwDQYJKoZIhvcNAQEL
BQAwgaQxEzARBgoJkiaJk/IsZAEZFgNlZHUxFDASBgoJkiaJk/IsZAEZFgR1Y3Nk
MRMwEQYKCZImiZPyLGQBGRYDZTRlMRUwEwYDVQQKDAxVQyBTYW4gRGllZ28xIjAg
BgNVBAsMGUVuZ2luZWVycyBmb3IgRXhwbG9yYXRpb24xJzAlBgNVBAMMHlVDU0Qg
RW5naW5lZXJzIGZvciBFeHBsb3JhdGlvbjAeFw0yNTAzMjYwMjAzMTVaFw00NTAz
MjYwMjAzMTVaMIGkMRMwEQYKCZImiZPyLGQBGRYDZWR1MRQwEgYKCZImiZPyLGQB
GRYEdWNzZDETMBEGCgmSJomT8ixkARkWA2U0ZTEVMBMGA1UECgwMVUMgU2FuIERp
ZWdvMSIwIAYDVQQLDBlFbmdpbmVlcnMgZm9yIEV4cGxvcmF0aW9uMScwJQYDVQQD
DB5VQ1NEIEVuZ2luZWVycyBmb3IgRXhwbG9yYXRpb24wggIiMA0GCSqGSIb3DQEB
AQUAA4ICDwAwggIKAoICAQC+Xwwk4N2GK5OqRjf7dEGKSpy79lV1Uy/kHBy223h7
1dO9meoVyiwr2fwkrG2iLIR30sKLCLfNNsGSYrOU8bajZbLD3Fb5yf9Hr96Fu7o0
5wvdklOS4Kxna7IXEVXVgPvZhczcQj0SKec0NRfSGm/xviQRL/9KbNfweImcrvQt
oIpvGbD3i4zUF46uOTFRuNJ1I+fDYc7D5WwMPLmmDNVKsTJ9iyxZW6ID8NdXZ20L
n3hsTOpr2ur0LOCcJWAKIIHRZyCUxDIPqH4bjzJUP9XJ3OY0rwU5OGWP1ZrFQFQn
wg9MR8T07RSxkxnUV7UFSICudr6kj5qjIE4PywfyfwZSQcSqd2eyKq0r6BbQHTH1
QutRfYoE8ymdrrryFKLo4otsz1ITtu33KwIugTmBac2Xw2gWRDqpgJm8yzsjNEfq
0Fc7hg53iuu4PBAOMOIX9sgtpXJGMSKktBCWMvDANpYlIDJ/9GzpkawlIG2dz3rf
qJdgoJKbnu3VcEllyvOkfBZ6B1lC42e3J6a30FVxzlCmkHWaGiefvS5FYVEx6aAD
rCTU/Xp6zb1wr8fpExiiGs4vHLHzb+Tb9uCQ82KdaLIxpulRzvUFPK32rz1LrUBX
/KRv+fETTS6563BCz/cHhaoZjLIEfzbcASiC+sf8kEn438rsWJqfGQtM8NipJx0c
fwIDAQABo2MwYTAOBgNVHQ8BAf8EBAMCAQYwDwYDVR0TAQH/BAUwAwEB/zAdBgNV
HQ4EFgQUWDkVIZwWMFq6KrcpuI1Bk5LmUOEwHwYDVR0jBBgwFoAUWDkVIZwWMFq6
KrcpuI1Bk5LmUOEwDQYJKoZIhvcNAQELBQADggIBAIVYT0jzKVJLz+ZpRQyZ3xHz
GXv9yfdH8Z851bXH4m1ld36C5zwIY4rTL1bRQXYjgqkiKj7dqoatq3xilUBcdqds
r37dLcuDW4EgFJSg3td6BJhFB1Isf7mFbgygANX6zYlE79XJeFdW9QJYuwzRHZan
+8iYQsfgvSQxcQrXGTIhKFLNsp4GF5WRkEy83q+LrrajHANJtjo1jRvdleSKLD9B
5LEYMoRsqycCP14AH1QgWioirabN/OnEZncXe6u1JSbEFmgKeOm94pu5gGVj252F
tOL77CpE7Qx7VvlGzMy710znqH492hq3kGnb36T7QaVHptMqMIOCJEaxW617WBl5
ek/vNboEjYHaAjo0QNRwJmntJ5Nmzy0H/4o7HeUNlue3Fx89Rv1EGbJJ/ZgvGnhX
YGq/2PXzxJQxC+X8LYDUott35wxbqZ2whRd0H9xMPhZCCy9DJLLCmfHxLx+kUbqA
CbPXKDdbjatLUhEHFW8v67mDCBuYUiQcaNJftZ2OROENIS2s4CB+CgCf27asQrK5
1u2kzHrTbH+6gQMElno/ug+r7DJgQixtEi2xXaDQaJRbEkmWeatV9w0HxSi5A7+k
SvdErLYKmYAHyl3B1dKaYz44zL3pF/pxeuGYcPqCJFUdhiBZHxMCT/JO6XkR4jv8
UtR4ewFY3w7G4V8xMnzf
-----END CERTIFICATE-----
