Certificate:
    Data:
        Version: 3 (0x2)
        Serial Number:
            69:c1:88:95:d8:8c:17:2d:84:9c:1e:48:95:4f:db:49:d7:c2:4d:3c
        Signature Algorithm: sha256WithRSAEncryption
        Issuer: DC=edu, DC=ucsd, DC=e4e, O=UCSD Engineers for Exploration, CN=Engineers for Exploration CA
        Validity
            Not Before: Jul  5 00:17:57 2024 GMT
            Not After : Jul  5 00:17:57 2034 GMT
        Subject: DC=edu, DC=ucsd, DC=e4e, O=UCSD Engineers for Exploration, CN=Engineers for Exploration CA
        Subject Public Key Info:
            Public Key Algorithm: rsaEncryption
                RSA Public-Key: (2048 bit)
                Modulus:
                    00:cb:ef:f6:58:d7:04:4c:70:30:68:19:2c:b8:4b:
                    07:cb:c5:bd:57:d4:25:28:a6:69:02:45:c4:76:39:
                    b1:de:4a:c5:b1:e7:6d:01:d4:e0:5a:86:ad:a2:04:
                    8f:11:54:b4:ff:42:34:22:68:85:61:fd:3c:52:d1:
                    fd:45:97:26:04:c1:d1:d3:30:b1:7e:e5:aa:a2:2a:
                    16:cc:82:1d:83:ff:e7:0a:fb:b2:5d:96:32:1f:98:
                    7b:dc:c2:1a:2a:32:32:5f:a7:40:7b:63:fa:96:49:
                    48:37:b9:86:07:21:e2:d7:b4:12:d6:aa:85:17:52:
                    d7:24:80:da:d7:2a:e3:e6:51:c8:87:e7:b3:5c:6c:
                    65:97:db:5f:bf:d7:48:df:64:ab:f1:da:b6:6f:80:
                    58:44:32:63:be:e1:88:b4:6e:32:80:52:4d:5d:df:
                    a2:06:ea:88:7e:5e:73:7d:8f:cc:e3:a2:bc:6f:62:
                    5c:af:d9:15:aa:f1:c4:73:32:cf:61:34:4a:53:cb:
                    bf:a4:7c:d7:17:6c:74:a9:fd:27:bf:0a:81:70:a4:
                    5e:56:8a:d5:9a:b4:2b:dd:f6:bb:d9:51:fa:f7:84:
                    38:a1:75:31:24:75:05:94:3e:8c:b9:99:64:97:38:
                    73:14:63:0f:ea:37:58:4d:6b:0a:40:ac:7b:ac:95:
                    2e:b5
                Exponent: 65537 (0x10001)
        X509v3 extensions:
            X509v3 Key Usage: critical
                Certificate Sign, CRL Sign
            X509v3 Basic Constraints: critical
                CA:TRUE
            X509v3 Subject Key Identifier: 
                65:CE:90:6E:70:0D:94:E1:78:83:1C:90:F7:57:91:BE:CA:23:51:23
            X509v3 Authority Key Identifier: 
                keyid:65:CE:90:6E:70:0D:94:E1:78:83:1C:90:F7:57:91:BE:CA:23:51:23

    Signature Algorithm: sha256WithRSAEncryption
         5a:7f:b2:80:8e:dc:cc:83:2c:6a:67:fa:d0:61:20:c3:c2:de:
         12:65:ed:4d:39:4a:2f:f0:a1:d1:f5:df:bc:2b:76:12:97:56:
         73:8b:98:91:e0:af:ab:cc:af:54:9a:eb:ba:b2:df:c5:4c:ff:
         dd:c7:eb:30:03:e5:4f:81:7d:cf:65:88:ec:5c:79:aa:26:86:
         d9:52:63:23:d7:8f:fa:8e:4e:e9:1a:30:61:38:4d:57:e6:67:
         d3:4b:da:c7:36:1c:82:ae:4f:3b:87:e3:d8:c4:93:4c:bf:f3:
         88:e1:4d:d3:ee:6d:e5:9d:26:30:66:51:8b:a5:af:43:20:4b:
         36:a7:a1:d5:da:85:ab:a3:6a:b6:56:17:06:8d:91:f1:b2:59:
         e9:24:fa:dc:01:ab:96:3c:a2:e6:d6:6e:45:48:c1:d2:47:85:
         88:3a:b8:40:62:88:2d:dc:5f:bd:9a:b7:b3:fa:85:d7:e8:12:
         d0:0e:26:a6:fd:47:14:26:8e:3c:ee:27:83:65:51:bd:34:03:
         ee:cd:8f:8d:ff:79:3c:28:4f:11:fd:5b:03:ae:b8:e0:9a:62:
         c5:fd:74:22:6e:7d:8f:24:eb:f3:82:02:f8:49:39:55:45:ea:
         21:3d:9f:ec:68:a7:8c:45:2a:68:b8:1c:01:3e:8b:eb:07:c6:
         44:e8:2c:bf
-----BEGIN CERTIFICATE-----
MIIEEzCCAvugAwIBAgIUacGIldiMFy2EnB5IlU/bSdfCTTwwDQYJKoZIhvcNAQEL
BQAwgZAxEzARBgoJkiaJk/IsZAEZFgNlZHUxFDASBgoJkiaJk/IsZAEZFgR1Y3Nk
MRMwEQYKCZImiZPyLGQBGRYDZTRlMScwJQYDVQQKDB5VQ1NEIEVuZ2luZWVycyBm
b3IgRXhwbG9yYXRpb24xJTAjBgNVBAMMHEVuZ2luZWVycyBmb3IgRXhwbG9yYXRp
b24gQ0EwHhcNMjQwNzA1MDAxNzU3WhcNMzQwNzA1MDAxNzU3WjCBkDETMBEGCgmS
JomT8ixkARkWA2VkdTEUMBIGCgmSJomT8ixkARkWBHVjc2QxEzARBgoJkiaJk/Is
ZAEZFgNlNGUxJzAlBgNVBAoMHlVDU0QgRW5naW5lZXJzIGZvciBFeHBsb3JhdGlv
bjElMCMGA1UEAwwcRW5naW5lZXJzIGZvciBFeHBsb3JhdGlvbiBDQTCCASIwDQYJ
KoZIhvcNAQEBBQADggEPADCCAQoCggEBAMvv9ljXBExwMGgZLLhLB8vFvVfUJSim
aQJFxHY5sd5KxbHnbQHU4FqGraIEjxFUtP9CNCJohWH9PFLR/UWXJgTB0dMwsX7l
qqIqFsyCHYP/5wr7sl2WMh+Ye9zCGioyMl+nQHtj+pZJSDe5hgch4te0EtaqhRdS
1ySA2tcq4+ZRyIfns1xsZZfbX7/XSN9kq/Hatm+AWEQyY77hiLRuMoBSTV3fogbq
iH5ec32PzOOivG9iXK/ZFarxxHMyz2E0SlPLv6R81xdsdKn9J78KgXCkXlaK1Zq0
K932u9lR+veEOKF1MSR1BZQ+jLmZZJc4cxRjD+o3WE1rCkCse6yVLrUCAwEAAaNj
MGEwDgYDVR0PAQH/BAQDAgEGMA8GA1UdEwEB/wQFMAMBAf8wHQYDVR0OBBYEFGXO
kG5wDZTheIMckPdXkb7KI1EjMB8GA1UdIwQYMBaAFGXOkG5wDZTheIMckPdXkb7K
I1EjMA0GCSqGSIb3DQEBCwUAA4IBAQBaf7KAjtzMgyxqZ/rQYSDDwt4SZe1NOUov
8KHR9d+8K3YSl1Zzi5iR4K+rzK9Umuu6st/FTP/dx+swA+VPgX3PZYjsXHmqJobZ
UmMj14/6jk7pGjBhOE1X5mfTS9rHNhyCrk87h+PYxJNMv/OI4U3T7m3lnSYwZlGL
pa9DIEs2p6HV2oWro2q2VhcGjZHxslnpJPrcAauWPKLm1m5FSMHSR4WIOrhAYogt
3F+9mrez+oXX6BLQDiam/UcUJo487ieDZVG9NAPuzY+N/3k8KE8R/VsDrrjgmmLF
/XQibn2PJOvzggL4STlVReohPZ/saKeMRSpouBwBPovrB8ZE6Cy/
-----END CERTIFICATE-----
