Certificate:
    Data:
        Version: 3 (0x2)
        Serial Number:
            75:59:9f:b8:0e:f0:c7:aa:63:65:91:3d:54:6e:f7:f7:e1:03:6e:1e
        Signature Algorithm: sha256WithRSAEncryption
        Issuer: DC=edu, DC=ucsd, DC=e4e, O=UC San Diego, OU=Engineers for Exploration, CN=UCSD Engineers for Exploration
        Validity
            Not Before: Mar 26 02:44:27 2025 GMT
            Not After : Mar 26 02:44:27 2045 GMT
        Subject: DC=edu, DC=ucsd, DC=e4e, O=UC San Diego, OU=Engineers for Exploration, CN=UCSD Engineers for Exploration
        Subject Public Key Info:
            Public Key Algorithm: rsaEncryption
                Public-Key: (4096 bit)
                Modulus:
                    00:bd:3f:bb:3d:c6:7c:e0:76:59:c7:a5:65:95:25:
                    a3:db:02:bc:08:c0:96:37:c2:16:4c:d6:85:74:04:
                    52:4d:03:38:07:ce:66:2d:76:52:48:0b:c4:bc:8c:
                    e8:7b:aa:bb:e5:45:c2:5c:b5:ff:71:69:7c:39:cb:
                    5a:9b:c1:b7:74:8d:c4:6b:62:61:f4:1e:52:8e:01:
                    92:e5:ee:12:03:b7:53:1b:50:99:3e:40:c8:e7:81:
                    a6:73:b2:e7:04:ec:0b:6a:fb:a8:48:c5:50:34:2e:
                    e1:5f:05:3a:4a:25:38:29:d6:11:6b:e7:06:b1:8e:
                    0e:69:e0:1f:7b:b7:33:23:4f:98:a3:55:5a:a7:b5:
                    ee:39:a2:31:d2:22:16:1c:55:4a:1a:e3:1d:c7:7b:
                    81:7b:35:e8:ae:61:91:76:33:c7:06:5b:f1:3a:a0:
                    8b:5c:42:cf:48:80:67:b5:30:6c:b7:3b:d5:7a:15:
                    b7:1d:95:a7:7d:07:46:fc:db:b6:04:54:ed:bd:d3:
                    f0:d1:41:ab:7a:a6:40:8c:6a:41:ac:aa:f3:f8:09:
                    dc:3d:39:92:77:7b:1b:e3:0b:fe:94:8a:28:81:29:
                    ed:3e:26:04:c6:c4:f6:1c:ca:9e:3d:ae:44:f5:df:
                    19:c7:72:6c:6b:63:8e:aa:99:54:cc:86:7b:77:de:
                    4d:8f:92:d4:21:76:aa:1d:09:03:a4:dd:8a:7b:37:
                    22:90:ec:7e:8f:91:03:5e:d5:84:35:98:aa:24:2f:
                    93:d5:d9:19:23:7c:70:e8:9b:5e:99:8a:3b:3e:19:
                    b3:88:40:37:ff:4a:3d:bc:2c:b8:9e:69:55:94:2f:
                    e0:51:eb:3b:4b:52:4a:7a:31:75:88:c6:d5:90:55:
                    76:aa:b6:9d:e1:05:dc:d3:7a:22:4a:67:9e:88:98:
                    d4:06:77:46:29:31:09:c7:42:cb:a5:40:1d:d1:67:
                    f7:c5:0f:77:58:07:6b:ab:3f:2a:ca:44:a6:23:3b:
                    bc:ff:c7:cd:19:b4:d6:79:c9:16:45:0f:91:88:59:
                    3d:c1:a5:41:f9:22:d0:86:9a:55:7e:36:4b:35:fd:
                    42:5a:b9:94:da:a9:db:14:14:15:fe:7b:34:01:5c:
                    62:80:e5:ca:eb:6d:a7:dc:55:20:b5:a0:84:22:98:
                    a3:11:b2:41:f5:a6:b6:8c:7a:ea:1a:b9:6d:0f:e7:
                    e9:33:dc:86:18:b7:c8:71:d3:03:a6:44:4e:14:35:
                    d5:20:2f:4e:53:e0:55:e7:bb:b6:ab:7a:aa:2a:ac:
                    f7:be:1d:4f:89:85:b9:94:a3:b2:ad:40:5e:19:9a:
                    c1:90:fa:f1:a1:43:94:da:63:eb:1d:70:e6:48:5b:
                    c3:e1:37
                Exponent: 65537 (0x10001)
        X509v3 extensions:
            X509v3 Key Usage: critical
                Certificate Sign, CRL Sign
            X509v3 Basic Constraints: critical
                CA:TRUE
            X509v3 Subject Key Identifier: 
                D6:58:C2:27:08:32:1B:E3:95:9E:2D:8D:BA:C4:4D:9F:6D:6F:CE:0E
            X509v3 Authority Key Identifier: 
                D6:58:C2:27:08:32:1B:E3:95:9E:2D:8D:BA:C4:4D:9F:6D:6F:CE:0E
    Signature Algorithm: sha256WithRSAEncryption
    Signature Value:
        b4:59:2b:e4:35:67:27:7c:bd:2a:a5:f6:00:36:26:24:92:a7:
        15:fd:88:db:9f:4e:03:44:cf:ff:72:29:d7:f0:2a:39:23:05:
        3e:1d:49:b1:13:c9:5d:21:53:3a:61:ab:0a:c3:bc:51:c2:45:
        a5:e5:ef:c7:2d:d4:f3:2b:97:41:4a:83:46:39:22:52:9f:b8:
        71:5a:28:f0:0b:90:29:56:cd:de:76:28:7b:6d:c0:34:ec:b1:
        9a:6c:fb:ef:7f:2d:04:c9:ab:c7:f6:fc:3b:b8:50:d9:b4:6e:
        52:2b:61:5a:c8:eb:38:be:c2:82:6a:c4:9e:87:7a:c7:a6:25:
        07:ce:ec:98:3c:ed:d8:dd:d0:74:f1:3d:a5:d2:e1:6b:0f:f3:
        46:c4:e0:1e:d4:c4:85:17:5a:ed:a6:4d:cd:c0:88:1b:53:71:
        c1:4a:6e:70:90:e8:7a:0f:84:a4:a2:e4:f1:45:e3:a3:a2:00:
        09:e7:ba:ce:e6:9a:c9:c7:24:3e:ba:95:28:5c:2a:08:b4:c2:
        87:81:40:94:36:84:49:d9:8b:5f:65:8f:0c:84:16:f3:1d:8c:
        a5:da:bb:9a:03:c8:f2:c8:b3:7a:55:a7:9a:63:6e:44:80:62:
        46:9a:42:90:06:d6:31:d0:c6:85:a3:30:d7:ac:ce:43:14:1e:
        da:f1:c9:00:7f:e2:a6:cf:5e:8b:1d:c1:9e:a3:f2:6a:5a:44:
        a0:e9:7e:11:80:dd:2c:5a:61:62:8f:60:c3:1a:ac:83:82:ad:
        e2:c4:08:97:a1:7a:74:5f:f2:b0:0f:ec:34:3e:44:d6:5f:67:
        1d:07:9d:34:fb:98:27:81:51:81:a8:07:52:64:46:6c:99:60:
        29:ae:cc:1f:f3:1b:8b:aa:62:8d:5a:84:f6:6f:ca:a4:4e:8e:
        84:0e:c9:0f:b3:f9:13:37:b8:61:62:73:60:0d:cd:3d:4c:7c:
        97:ae:96:69:6d:0b:4c:62:f6:21:a8:ed:aa:36:91:40:4a:90:
        58:0e:e3:dc:01:85:fe:6b:67:d0:c6:f0:7e:f8:b0:4f:ce:bb:
        01:bf:79:bc:52:e4:7a:22:fb:40:7d:48:c2:ef:72:c2:30:30:
        72:7d:8a:bd:55:0c:70:b9:60:88:3d:c8:a0:78:81:4e:06:0b:
        0d:9b:1d:ca:e1:9e:29:49:dc:ed:97:21:58:c1:aa:d2:07:15:
        61:c3:14:16:d9:d1:34:9f:8d:f4:11:d8:c8:3a:6b:03:fb:91:
        37:2c:35:3f:6c:6b:85:a5:c6:95:18:94:6a:e0:da:98:61:42:
        fb:f7:b0:51:ef:25:03:e9:ce:a2:b2:6a:dd:e7:c3:2b:ae:a1:
        2e:c1:a8:49:07:5f:82:ec
-----BEGIN CERTIFICATE-----
MIIGOzCCBCOgAwIBAgIUdVmfuA7wx6pjZZE9VG739+EDbh4wDQYJKoZIhvcNAQEL
BQAwgaQxEzARBgoJkiaJk/IsZAEZFgNlZHUxFDASBgoJkiaJk/IsZAEZFgR1Y3Nk
MRMwEQYKCZImiZPyLGQBGRYDZTRlMRUwEwYDVQQKDAxVQyBTYW4gRGllZ28xIjAg
BgNVBAsMGUVuZ2luZWVycyBmb3IgRXhwbG9yYXRpb24xJzAlBgNVBAMMHlVDU0Qg
RW5naW5lZXJzIGZvciBFeHBsb3JhdGlvbjAeFw0yNTAzMjYwMjQ0MjdaFw00NTAz
MjYwMjQ0MjdaMIGkMRMwEQYKCZImiZPyLGQBGRYDZWR1MRQwEgYKCZImiZPyLGQB
GRYEdWNzZDETMBEGCgmSJomT8ixkARkWA2U0ZTEVMBMGA1UECgwMVUMgU2FuIERp
ZWdvMSIwIAYDVQQLDBlFbmdpbmVlcnMgZm9yIEV4cGxvcmF0aW9uMScwJQYDVQQD
DB5VQ1NEIEVuZ2luZWVycyBmb3IgRXhwbG9yYXRpb24wggIiMA0GCSqGSIb3DQEB
AQUAA4ICDwAwggIKAoICAQC9P7s9xnzgdlnHpWWVJaPbArwIwJY3whZM1oV0BFJN
AzgHzmYtdlJIC8S8jOh7qrvlRcJctf9xaXw5y1qbwbd0jcRrYmH0HlKOAZLl7hID
t1MbUJk+QMjngaZzsucE7Atq+6hIxVA0LuFfBTpKJTgp1hFr5waxjg5p4B97tzMj
T5ijVVqnte45ojHSIhYcVUoa4x3He4F7NeiuYZF2M8cGW/E6oItcQs9IgGe1MGy3
O9V6Fbcdlad9B0b827YEVO290/DRQat6pkCMakGsqvP4Cdw9OZJ3exvjC/6UiiiB
Ke0+JgTGxPYcyp49rkT13xnHcmxrY46qmVTMhnt33k2PktQhdqodCQOk3Yp7NyKQ
7H6PkQNe1YQ1mKokL5PV2RkjfHDom16Zijs+GbOIQDf/Sj28LLieaVWUL+BR6ztL
Ukp6MXWIxtWQVXaqtp3hBdzTeiJKZ56ImNQGd0YpMQnHQsulQB3RZ/fFD3dYB2ur
PyrKRKYjO7z/x80ZtNZ5yRZFD5GIWT3BpUH5ItCGmlV+Nks1/UJauZTaqdsUFBX+
ezQBXGKA5crrbafcVSC1oIQimKMRskH1praMeuoauW0P5+kz3IYYt8hx0wOmRE4U
NdUgL05T4FXnu7areqoqrPe+HU+JhbmUo7KtQF4ZmsGQ+vGhQ5TaY+sdcOZIW8Ph
NwIDAQABo2MwYTAOBgNVHQ8BAf8EBAMCAQYwDwYDVR0TAQH/BAUwAwEB/zAdBgNV
HQ4EFgQU1ljCJwgyG+OVni2NusRNn21vzg4wHwYDVR0jBBgwFoAU1ljCJwgyG+OV
ni2NusRNn21vzg4wDQYJKoZIhvcNAQELBQADggIBALRZK+Q1Zyd8vSql9gA2JiSS
pxX9iNufTgNEz/9yKdfwKjkjBT4dSbETyV0hUzphqwrDvFHCRaXl78ct1PMrl0FK
g0Y5IlKfuHFaKPALkClWzd52KHttwDTssZps++9/LQTJq8f2/Du4UNm0blIrYVrI
6zi+woJqxJ6HesemJQfO7Jg87djd0HTxPaXS4WsP80bE4B7UxIUXWu2mTc3AiBtT
ccFKbnCQ6HoPhKSi5PFF46OiAAnnus7mmsnHJD66lShcKgi0woeBQJQ2hEnZi19l
jwyEFvMdjKXau5oDyPLIs3pVp5pjbkSAYkaaQpAG1jHQxoWjMNeszkMUHtrxyQB/
4qbPXosdwZ6j8mpaRKDpfhGA3SxaYWKPYMMarIOCreLECJehenRf8rAP7DQ+RNZf
Zx0HnTT7mCeBUYGoB1JkRmyZYCmuzB/zG4uqYo1ahPZvyqROjoQOyQ+z+RM3uGFi
c2ANzT1MfJeulmltC0xi9iGo7ao2kUBKkFgO49wBhf5rZ9DG8H74sE/OuwG/ebxS
5Hoi+0B9SMLvcsIwMHJ9ir1VDHC5YIg9yKB4gU4GCw2bHcrhnilJ3O2XIVjBqtIH
FWHDFBbZ0TSfjfQR2Mg6awP7kTcsNT9sa4WlxpUYlGrg2phhQvv3sFHvJQPpzqKy
at3nwyuuoS7BqEkHX4Ls
-----END CERTIFICATE-----
